ARM GAS  /cygdrive/c/Users/embedded/AppData/Local/Temp/ccX8A2TU.s 			page 1


   1              		.code	16
   2              		.file	"gpio.c"
   3              		.section	.debug_abbrev,"",%progbits
   4              	.Ldebug_abbrev0:
   5              		.section	.debug_info,"",%progbits
   6              	.Ldebug_info0:
   7              		.section	.debug_line,"",%progbits
   8              	.Ldebug_line0:
   9 0000 7E000000 		.text
   9      02004700 
   9      00000201 
   9      FB0E0D00 
   9      01010101 
  10              	.Ltext0:
  11              		.align	2
  12              		.global	getButton
  13              		.code 16
  14              		.thumb_func
  15              		.type	getButton, %function
  16              	getButton:
  17              	.LFB3:
  18              		.file 1 "gpio.c"
   1:gpio.c        **** /******************************************************************************
   2:gpio.c        ****  *
   3:gpio.c        ****  * Copyright:
   4:gpio.c        ****  *    (C) 2000 - 2005 Embedded Artists AB
   5:gpio.c        ****  *
   6:gpio.c        ****  *****************************************************************************/
   7:gpio.c        **** 
   8:gpio.c        **** 
   9:gpio.c        **** #include "../pre_emptive_os/api/osapi.h"
  10:gpio.c        **** #include "../pre_emptive_os/api/general.h"
  11:gpio.c        **** #include <printf_P.h>
  12:gpio.c        **** #include <lpc2xxx.h>
  13:gpio.c        **** #include <consol.h>
  14:gpio.c        **** #include <config.h>
  15:gpio.c        **** 
  16:gpio.c        **** 
  17:gpio.c        **** #define USEDBUTTONNUMBER 5
  18:gpio.c        **** 
  19:gpio.c        **** tU8 iopinTemp[USEDBUTTONNUMBER]={0};
  20:gpio.c        **** 
  21:gpio.c        **** tU8 checkIO(void)
  22:gpio.c        **** {
  23:gpio.c        **** 	int i;
  24:gpio.c        **** 	tU8 curriopin[USEDBUTTONNUMBER];
  25:gpio.c        **** 	int j[USEDBUTTONNUMBER]={14,17,18,19,20}; //IOPIN bit button number
  26:gpio.c        **** 	
  27:gpio.c        **** 	//readiopins and put in array
  28:gpio.c        **** 	for(i=0; i<USEDBUTTONNUMBER; i++)
  29:gpio.c        **** 	{
  30:gpio.c        **** 		if(!(IOPIN0 & (1<<j[i])))
  31:gpio.c        **** 			curriopin[i]=1;
  32:gpio.c        **** 		else
  33:gpio.c        **** 			curriopin[i]=0;
  34:gpio.c        **** 	}
  35:gpio.c        **** 	
ARM GAS  /cygdrive/c/Users/embedded/AppData/Local/Temp/ccX8A2TU.s 			page 2


  36:gpio.c        **** 	//check iopin equality
  37:gpio.c        **** 	if(!(memcmp(curriopin, iopinTemp, sizeof(curriopin))))
  38:gpio.c        **** 		return 0;
  39:gpio.c        **** 	else
  40:gpio.c        **** 	{
  41:gpio.c        **** 		memcpy(iopinTemp,curriopin,5);
  42:gpio.c        **** 		return 1;
  43:gpio.c        **** 	}
  44:gpio.c        **** }
  45:gpio.c        **** 
  46:gpio.c        **** int getButton(void)
  47:gpio.c        **** {
  19              		.loc 1 47 0
  48:gpio.c        **** 	IODIR0 &= ~((1<<18));
  20              		.loc 1 48 0
  21 0000 1449     		ldr	r1, .L12
  22 0002 154A     		ldr	r2, .L12+4
  23 0004 0B68     		ldr	r3, [r1]
  24 0006 1340     		and	r3, r3, r2
  25 0008 0B60     		str	r3, [r1]
  49:gpio.c        **** 	IODIR0 &= ~((1<<19));
  26              		.loc 1 49 0
  27 000a 144A     		ldr	r2, .L12+8
  28 000c 0B68     		ldr	r3, [r1]
  29 000e 1340     		and	r3, r3, r2
  30 0010 0B60     		str	r3, [r1]
  50:gpio.c        **** 	IODIR0 &= ~((1<<20));
  31              		.loc 1 50 0
  32 0012 134A     		ldr	r2, .L12+12
  33 0014 0B68     		ldr	r3, [r1]
  34 0016 1340     		and	r3, r3, r2
  35 0018 0B60     		str	r3, [r1]
  51:gpio.c        **** 	IODIR0 &= ~((1<<17));
  36              		.loc 1 51 0
  37 001a 124A     		ldr	r2, .L12+16
  38 001c 0B68     		ldr	r3, [r1]
  39 001e 1340     		and	r3, r3, r2
  40 0020 0B60     		str	r3, [r1]
  52:gpio.c        **** 	if(!(IOPIN0 & (1<<17))) //joy up
  41              		.loc 1 52 0
  42 0022 114A     		ldr	r2, .L12+20
  43 0024 1368     		ldr	r3, [r2]
  44              		.loc 1 47 0
  45              		@ lr needed for prologue
  46              		.loc 1 52 0
  47 0026 9903     		lsl	r1, r3, #14
  48 0028 01D4     		bmi	.L2
  49 002a 0220     		mov	r0, #2
  50 002c 10E0     		b	.L4
  51              	.L2:
  53:gpio.c        **** 	{
  54:gpio.c        **** 		//IOSET0 |= (1<<17);
  55:gpio.c        **** 		return 2;
  56:gpio.c        **** 	}
  57:gpio.c        **** 	if(!(IOPIN0 & (1<<20))) //joy down
  52              		.loc 1 57 0
  53 002e 1368     		ldr	r3, [r2]
ARM GAS  /cygdrive/c/Users/embedded/AppData/Local/Temp/ccX8A2TU.s 			page 3


  54 0030 D902     		lsl	r1, r3, #11
  55 0032 01D4     		bmi	.L5
  56 0034 0020     		mov	r0, #0
  57 0036 0BE0     		b	.L4
  58              	.L5:
  58:gpio.c        **** 	{
  59:gpio.c        **** 		//IOSET0 |= (1<<20);
  60:gpio.c        **** 		return 0;
  61:gpio.c        **** 	}
  62:gpio.c        **** 	if(!(IOPIN0 & (1<<19))) //joy left
  59              		.loc 1 62 0
  60 0038 1368     		ldr	r3, [r2]
  61 003a 1903     		lsl	r1, r3, #12
  62 003c 01D4     		bmi	.L7
  63 003e 0320     		mov	r0, #3
  64 0040 06E0     		b	.L4
  65              	.L7:
  63:gpio.c        **** 	{
  64:gpio.c        **** 		//IOSET0 |= (1<<19);
  65:gpio.c        **** 		return 3;
  66:gpio.c        **** 	}
  67:gpio.c        **** 	if(!(IOPIN0 & (1<<18))) //joy right
  66              		.loc 1 67 0
  67 0042 1368     		ldr	r3, [r2]
  68 0044 5A03     		lsl	r2, r3, #13
  69 0046 01D4     		bmi	.L9
  70 0048 0120     		mov	r0, #1
  71 004a 01E0     		b	.L4
  72              	.L9:
  73 004c 0120     		mov	r0, #1
  74 004e 4042     		neg	r0, r0
  75              	.L4:
  68:gpio.c        **** 	{
  69:gpio.c        **** 		//IOSET0 |= (1<<18);
  70:gpio.c        **** 		return 1;
  71:gpio.c        **** 	}
  72:gpio.c        **** 	
  73:gpio.c        **** 	return -1;
  74:gpio.c        **** 	
  75:gpio.c        **** }
  76              		.loc 1 75 0
  77              		@ sp needed for prologue
  78 0050 7047     		bx	lr
  79              	.L13:
  80 0052 0000     		.align	2
  81              	.L12:
  82 0054 088002E0 		.word	-536707064
  83 0058 FFFFFBFF 		.word	-262145
  84 005c FFFFF7FF 		.word	-524289
  85 0060 FFFFEFFF 		.word	-1048577
  86 0064 FFFFFDFF 		.word	-131073
  87 0068 008002E0 		.word	-536707072
  88              	.LFE3:
  89              		.size	getButton, .-getButton
  90              		.align	2
  91              		.global	checkIO
  92              		.code 16
ARM GAS  /cygdrive/c/Users/embedded/AppData/Local/Temp/ccX8A2TU.s 			page 4


  93              		.thumb_func
  94              		.type	checkIO, %function
  95              	checkIO:
  96              	.LFB2:
  97              		.loc 1 22 0
  98 006c 30B5     		push	{r4, r5, lr}
  99              	.LCFI0:
 100 006e 87B0     		sub	sp, sp, #28
 101              	.LCFI1:
 102              		.loc 1 25 0
 103 0070 174A     		ldr	r2, .L26
 104 0072 6B46     		mov	r3, sp
 105 0074 13CA     		ldmia	r2!, {r0, r1, r4}
 106 0076 13C3     		stmia	r3!, {r0, r1, r4}
 107 0078 03CA     		ldmia	r2!, {r0, r1}
 108 007a 03C3     		stmia	r3!, {r0, r1}
 109 007c 0020     		mov	r0, #0
 110              	.LVL0:
 111              	.L15:
 112              		.loc 1 30 0
 113 007e 154B     		ldr	r3, .L26+4
 114 0080 8200     		lsl	r2, r0, #2
 115 0082 1968     		ldr	r1, [r3]
 116 0084 6B46     		mov	r3, sp
 117 0086 D358     		ldr	r3, [r2, r3]
 118 0088 0124     		mov	r4, #1
 119 008a 221C     		mov	r2, r4
 120 008c 9A40     		lsl	r2, r2, r3
 121 008e 131C     		mov	r3, r2
 122 0090 6A46     		mov	r2, sp
 123 0092 1732     		add	r2, r2, #23
 124 0094 1942     		tst	r1, r3
 125 0096 01D1     		bne	.L16
 126              		.loc 1 31 0
 127 0098 8454     		strb	r4, [r0, r2]
 128 009a 01E0     		b	.L18
 129              	.L16:
 130              		.loc 1 33 0
 131 009c 0023     		mov	r3, #0
 132 009e 8354     		strb	r3, [r0, r2]
 133              	.L18:
 134              		.loc 1 28 0
 135 00a0 0130     		add	r0, r0, #1
 136 00a2 0528     		cmp	r0, #5
 137 00a4 EBD1     		bne	.L15
 138              		.loc 1 37 0
 139 00a6 6D46     		mov	r5, sp
 140 00a8 0B4C     		ldr	r4, .L26+8
 141 00aa 1735     		add	r5, r5, #23
 142 00ac 281C     		mov	r0, r5
 143              	.LVL1:
 144 00ae 211C     		mov	r1, r4
 145 00b0 0522     		mov	r2, #5
 146 00b2 FFF7FEFF 		bl	memcmp
 147 00b6 0028     		cmp	r0, #0
 148 00b8 05D0     		beq	.L22
 149              		.loc 1 41 0
ARM GAS  /cygdrive/c/Users/embedded/AppData/Local/Temp/ccX8A2TU.s 			page 5


 150 00ba 201C     		mov	r0, r4
 151 00bc 291C     		mov	r1, r5
 152 00be 0522     		mov	r2, #5
 153 00c0 FFF7FEFF 		bl	memcpy
 154 00c4 0120     		mov	r0, #1
 155              	.L22:
 156              		.loc 1 44 0
 157 00c6 07B0     		add	sp, sp, #28
 158              		@ sp needed for prologue
 159 00c8 30BC     		pop	{r4, r5}
 160 00ca 02BC     		pop	{r1}
 161 00cc 0847     		bx	r1
 162              	.L27:
 163 00ce 0000     		.align	2
 164              	.L26:
 165 00d0 00000000 		.word	C.0.1407
 166 00d4 008002E0 		.word	-536707072
 167 00d8 00000000 		.word	iopinTemp
 168              	.LFE2:
 169              		.size	checkIO, .-checkIO
 170              		.align	2
 171              		.global	getAnyButton
 172              		.code 16
 173              		.thumb_func
 174              		.type	getAnyButton, %function
 175              	getAnyButton:
 176              	.LFB4:
  76:gpio.c        **** 
  77:gpio.c        **** int getAnyButton()
  78:gpio.c        **** {
 177              		.loc 1 78 0
 178 00dc 00B5     		push	{lr}
 179              	.LCFI2:
  79:gpio.c        **** 	//SET ON INPUT p0.*
  80:gpio.c        **** 	IODIR0 &= ~((1<<14));
 180              		.loc 1 80 0
 181 00de 1749     		ldr	r1, .L38
 182 00e0 174A     		ldr	r2, .L38+4
 183 00e2 0B68     		ldr	r3, [r1]
 184 00e4 1340     		and	r3, r3, r2
 185 00e6 0B60     		str	r3, [r1]
  81:gpio.c        **** 	IODIR0 &= ~((1<<18));
 186              		.loc 1 81 0
 187 00e8 164A     		ldr	r2, .L38+8
 188 00ea 0B68     		ldr	r3, [r1]
 189 00ec 1340     		and	r3, r3, r2
 190 00ee 0B60     		str	r3, [r1]
  82:gpio.c        **** 	IODIR0 &= ~((1<<19));
 191              		.loc 1 82 0
 192 00f0 154A     		ldr	r2, .L38+12
 193 00f2 0B68     		ldr	r3, [r1]
 194 00f4 1340     		and	r3, r3, r2
 195 00f6 0B60     		str	r3, [r1]
  83:gpio.c        **** 	IODIR0 &= ~((1<<20));
 196              		.loc 1 83 0
 197 00f8 144A     		ldr	r2, .L38+16
 198 00fa 0B68     		ldr	r3, [r1]
ARM GAS  /cygdrive/c/Users/embedded/AppData/Local/Temp/ccX8A2TU.s 			page 6


 199 00fc 1340     		and	r3, r3, r2
 200 00fe 0B60     		str	r3, [r1]
  84:gpio.c        **** 	IODIR0 &= ~((1<<17));
 201              		.loc 1 84 0
 202 0100 134A     		ldr	r2, .L38+20
 203 0102 0B68     		ldr	r3, [r1]
 204 0104 1340     		and	r3, r3, r2
 205 0106 0B60     		str	r3, [r1]
  85:gpio.c        **** 	
  86:gpio.c        **** 	if(checkIO()) //ANITHOLDER
 206              		.loc 1 86 0
 207 0108 FFF7FEFF 		bl	checkIO
 208 010c 0028     		cmp	r0, #0
 209 010e 13D0     		beq	.L31
  87:gpio.c        **** 		if ((!(IOPIN0 & (1<<14))) || (!(IOPIN0 & (1<<17))) || (!(IOPIN0 & (1<<20))) || (!(IOPIN0 & (1<<19
 210              		.loc 1 87 0
 211 0110 104A     		ldr	r2, .L38+24
 212 0112 1368     		ldr	r3, [r2]
 213 0114 5904     		lsl	r1, r3, #17
 214 0116 0ED5     		bpl	.L32
 215 0118 1368     		ldr	r3, [r2]
 216 011a 9903     		lsl	r1, r3, #14
 217 011c 0BD5     		bpl	.L32
 218 011e 1368     		ldr	r3, [r2]
 219 0120 D902     		lsl	r1, r3, #11
 220 0122 08D5     		bpl	.L32
 221 0124 1368     		ldr	r3, [r2]
 222 0126 1903     		lsl	r1, r3, #12
 223 0128 05D5     		bpl	.L32
 224 012a 1368     		ldr	r3, [r2]
 225 012c 0122     		mov	r2, #1
 226 012e 9B0C     		lsr	r3, r3, #18
 227 0130 101C     		mov	r0, r2
 228 0132 9843     		bic	r0, r0, r3
 229 0134 00E0     		b	.L31
 230              	.L32:
 231 0136 0120     		mov	r0, #1
 232              	.L31:
  88:gpio.c        **** 		{
  89:gpio.c        **** 			return 1;
  90:gpio.c        **** 		}	
  91:gpio.c        **** 		else
  92:gpio.c        **** 			return 0;
  93:gpio.c        **** 	else
  94:gpio.c        **** 		return 0;
  95:gpio.c        **** }
 233              		.loc 1 95 0
 234              		@ sp needed for prologue
 235 0138 02BC     		pop	{r1}
 236 013a 0847     		bx	r1
 237              	.L39:
 238              		.align	2
 239              	.L38:
 240 013c 088002E0 		.word	-536707064
 241 0140 FFBFFFFF 		.word	-16385
 242 0144 FFFFFBFF 		.word	-262145
 243 0148 FFFFF7FF 		.word	-524289
ARM GAS  /cygdrive/c/Users/embedded/AppData/Local/Temp/ccX8A2TU.s 			page 7


 244 014c FFFFEFFF 		.word	-1048577
 245 0150 FFFFFDFF 		.word	-131073
 246 0154 008002E0 		.word	-536707072
 247              	.LFE4:
 248              		.size	getAnyButton, .-getAnyButton
 249              		.global	iopinTemp
 250              		.bss
 251              		.type	iopinTemp, %object
 252              		.size	iopinTemp, 5
 253              	iopinTemp:
 254 0000 00000000 		.space	5
 254      00
 255              		.section	.rodata
 256              		.align	2
 257              		.type	C.0.1407, %object
 258              		.size	C.0.1407, 20
 259              	C.0.1407:
 260 0000 0E000000 		.word	14
 261 0004 11000000 		.word	17
 262 0008 12000000 		.word	18
 263 000c 13000000 		.word	19
 264 0010 14000000 		.word	20
 265              		.section	.debug_frame,"",%progbits
 266              	.Lframe0:
 267 0000 0C000000 		.4byte	.LECIE0-.LSCIE0
 268              	.LSCIE0:
 269 0004 FFFFFFFF 		.4byte	0xffffffff
 270 0008 01       		.byte	0x1
 271 0009 00       		.ascii	"\000"
 272 000a 01       		.uleb128 0x1
 273 000b 7C       		.sleb128 -4
 274 000c 0E       		.byte	0xe
 275 000d 0C       		.byte	0xc
 276 000e 0D       		.uleb128 0xd
 277 000f 00       		.uleb128 0x0
 278              		.align	2
 279              	.LECIE0:
 280              	.LSFDE0:
 281 0010 0C000000 		.4byte	.LEFDE0-.LASFDE0
 282              	.LASFDE0:
 283 0014 00000000 		.4byte	.Lframe0
 284 0018 00000000 		.4byte	.LFB3
 285 001c 6C000000 		.4byte	.LFE3-.LFB3
 286              		.align	2
 287              	.LEFDE0:
 288              	.LSFDE2:
 289 0020 18000000 		.4byte	.LEFDE2-.LASFDE2
 290              	.LASFDE2:
 291 0024 00000000 		.4byte	.Lframe0
 292 0028 6C000000 		.4byte	.LFB2
 293 002c 70000000 		.4byte	.LFE2-.LFB2
 294 0030 42       		.byte	0x4
 295              		.4byte	.LCFI0-.LFB2
 296 0031 0E       		.byte	0xe
 297 0032 0C       		.uleb128 0xc
 298 0033 84       		.byte	0x84
 299 0034 03       		.uleb128 0x3
ARM GAS  /cygdrive/c/Users/embedded/AppData/Local/Temp/ccX8A2TU.s 			page 8


 300 0035 85       		.byte	0x85
 301 0036 02       		.uleb128 0x2
 302 0037 8E       		.byte	0x8e
 303 0038 01       		.uleb128 0x1
 304 0039 42       		.byte	0x4
 305              		.4byte	.LCFI1-.LCFI0
 306 003a 0E       		.byte	0xe
 307 003b 28       		.uleb128 0x28
 308              		.align	2
 309              	.LEFDE2:
 310              	.LSFDE4:
 311 003c 14000000 		.4byte	.LEFDE4-.LASFDE4
 312              	.LASFDE4:
 313 0040 00000000 		.4byte	.Lframe0
 314 0044 DC000000 		.4byte	.LFB4
 315 0048 7C000000 		.4byte	.LFE4-.LFB4
 316 004c 42       		.byte	0x4
 317              		.4byte	.LCFI2-.LFB4
 318 004d 0E       		.byte	0xe
 319 004e 04       		.uleb128 0x4
 320 004f 8E       		.byte	0x8e
 321 0050 01       		.uleb128 0x1
 322 0051 000000   		.align	2
 323              	.LEFDE4:
 324              		.file 2 "../pre_emptive_os/api/../api/general.h"
 325              		.text
 326              	.Letext0:
 327              		.section	.debug_loc,"",%progbits
 328              	.Ldebug_loc0:
 329              	.LLST1:
 330 0000 6C000000 		.4byte	.LFB2-.Ltext0
 331 0004 6E000000 		.4byte	.LCFI0-.Ltext0
 332 0008 0100     		.2byte	0x1
 333 000a 5D       		.byte	0x5d
 334 000b 6E000000 		.4byte	.LCFI0-.Ltext0
 335 000f 70000000 		.4byte	.LCFI1-.Ltext0
 336 0013 0200     		.2byte	0x2
 337 0015 7D       		.byte	0x7d
 338 0016 0C       		.sleb128 12
 339 0017 70000000 		.4byte	.LCFI1-.Ltext0
 340 001b DC000000 		.4byte	.LFE2-.Ltext0
 341 001f 0200     		.2byte	0x2
 342 0021 7D       		.byte	0x7d
 343 0022 28       		.sleb128 40
 344 0023 00000000 		.4byte	0x0
 345 0027 00000000 		.4byte	0x0
 346              	.LLST2:
 347 002b 7E000000 		.4byte	.LVL0-.Ltext0
 348 002f AE000000 		.4byte	.LVL1-.Ltext0
 349 0033 0100     		.2byte	0x1
 350 0035 50       		.byte	0x50
 351 0036 00000000 		.4byte	0x0
 352 003a 00000000 		.4byte	0x0
 353              	.LLST3:
 354 003e DC000000 		.4byte	.LFB4-.Ltext0
 355 0042 DE000000 		.4byte	.LCFI2-.Ltext0
 356 0046 0100     		.2byte	0x1
ARM GAS  /cygdrive/c/Users/embedded/AppData/Local/Temp/ccX8A2TU.s 			page 9


 357 0048 5D       		.byte	0x5d
 358 0049 DE000000 		.4byte	.LCFI2-.Ltext0
 359 004d 58010000 		.4byte	.LFE4-.Ltext0
 360 0051 0200     		.2byte	0x2
 361 0053 7D       		.byte	0x7d
 362 0054 04       		.sleb128 4
 363 0055 00000000 		.4byte	0x0
 364 0059 00000000 		.4byte	0x0
 365              		.section	.debug_info
 366 0000 04010000 		.4byte	0x104
 367 0004 0200     		.2byte	0x2
 368 0006 00000000 		.4byte	.Ldebug_abbrev0
 369 000a 04       		.byte	0x4
 370 000b 01       		.uleb128 0x1
 371 000c 00000000 		.4byte	.Ldebug_line0
 372 0010 58010000 		.4byte	.Letext0
 373 0014 00000000 		.4byte	.Ltext0
 374 0018 5F000000 		.4byte	.LASF10
 375 001c 01       		.byte	0x1
 376 001d 7F000000 		.4byte	.LASF11
 377 0021 86000000 		.4byte	.LASF12
 378 0025 02       		.uleb128 0x2
 379 0026 74553800 		.ascii	"tU8\000"
 380 002a 02       		.byte	0x2
 381 002b 47       		.byte	0x47
 382 002c 30000000 		.4byte	0x30
 383 0030 03       		.uleb128 0x3
 384 0031 08000000 		.4byte	.LASF0
 385 0035 01       		.byte	0x1
 386 0036 08       		.byte	0x8
 387 0037 03       		.uleb128 0x3
 388 0038 28000000 		.4byte	.LASF1
 389 003c 02       		.byte	0x2
 390 003d 07       		.byte	0x7
 391 003e 03       		.uleb128 0x3
 392 003f 45000000 		.4byte	.LASF2
 393 0043 04       		.byte	0x4
 394 0044 07       		.byte	0x7
 395 0045 03       		.uleb128 0x3
 396 0046 C6000000 		.4byte	.LASF3
 397 004a 01       		.byte	0x1
 398 004b 06       		.byte	0x6
 399 004c 03       		.uleb128 0x3
 400 004d 75000000 		.4byte	.LASF4
 401 0051 02       		.byte	0x2
 402 0052 05       		.byte	0x5
 403 0053 04       		.uleb128 0x4
 404 0054 696E7400 		.ascii	"int\000"
 405 0058 04       		.byte	0x4
 406 0059 05       		.byte	0x5
 407 005a 03       		.uleb128 0x3
 408 005b 16000000 		.4byte	.LASF5
 409 005f 04       		.byte	0x4
 410 0060 07       		.byte	0x7
 411 0061 05       		.uleb128 0x5
 412 0062 01       		.byte	0x1
 413 0063 3B000000 		.4byte	.LASF7
ARM GAS  /cygdrive/c/Users/embedded/AppData/Local/Temp/ccX8A2TU.s 			page 10


 414 0067 01       		.byte	0x1
 415 0068 2F       		.byte	0x2f
 416 0069 01       		.byte	0x1
 417 006a 53000000 		.4byte	0x53
 418 006e 00000000 		.4byte	.LFB3
 419 0072 6C000000 		.4byte	.LFE3
 420 0076 01       		.byte	0x1
 421 0077 5D       		.byte	0x5d
 422 0078 06       		.uleb128 0x6
 423 0079 BD000000 		.4byte	0xbd
 424 007d 01       		.byte	0x1
 425 007e 00000000 		.4byte	.LASF13
 426 0082 01       		.byte	0x1
 427 0083 16       		.byte	0x16
 428 0084 01       		.byte	0x1
 429 0085 25000000 		.4byte	0x25
 430 0089 6C000000 		.4byte	.LFB2
 431 008d DC000000 		.4byte	.LFE2
 432 0091 00000000 		.4byte	.LLST1
 433 0095 07       		.uleb128 0x7
 434 0096 6900     		.ascii	"i\000"
 435 0098 01       		.byte	0x1
 436 0099 17       		.byte	0x17
 437 009a 53000000 		.4byte	0x53
 438 009e 2B000000 		.4byte	.LLST2
 439 00a2 08       		.uleb128 0x8
 440 00a3 6B000000 		.4byte	.LASF6
 441 00a7 01       		.byte	0x1
 442 00a8 18       		.byte	0x18
 443 00a9 BD000000 		.4byte	0xbd
 444 00ad 02       		.byte	0x2
 445 00ae 91       		.byte	0x91
 446 00af 6F       		.sleb128 -17
 447 00b0 09       		.uleb128 0x9
 448 00b1 6A00     		.ascii	"j\000"
 449 00b3 01       		.byte	0x1
 450 00b4 19       		.byte	0x19
 451 00b5 CD000000 		.4byte	0xcd
 452 00b9 02       		.byte	0x2
 453 00ba 91       		.byte	0x91
 454 00bb 58       		.sleb128 -40
 455 00bc 00       		.byte	0x0
 456 00bd 0A       		.uleb128 0xa
 457 00be CD000000 		.4byte	0xcd
 458 00c2 25000000 		.4byte	0x25
 459 00c6 0B       		.uleb128 0xb
 460 00c7 5A000000 		.4byte	0x5a
 461 00cb 04       		.byte	0x4
 462 00cc 00       		.byte	0x0
 463 00cd 0A       		.uleb128 0xa
 464 00ce DD000000 		.4byte	0xdd
 465 00d2 53000000 		.4byte	0x53
 466 00d6 0B       		.uleb128 0xb
 467 00d7 5A000000 		.4byte	0x5a
 468 00db 04       		.byte	0x4
 469 00dc 00       		.byte	0x0
 470 00dd 0C       		.uleb128 0xc
ARM GAS  /cygdrive/c/Users/embedded/AppData/Local/Temp/ccX8A2TU.s 			page 11


 471 00de 01       		.byte	0x1
 472 00df 52000000 		.4byte	.LASF8
 473 00e3 01       		.byte	0x1
 474 00e4 4E       		.byte	0x4e
 475 00e5 53000000 		.4byte	0x53
 476 00e9 DC000000 		.4byte	.LFB4
 477 00ed 58010000 		.4byte	.LFE4
 478 00f1 3E000000 		.4byte	.LLST3
 479 00f5 0D       		.uleb128 0xd
 480 00f6 D2000000 		.4byte	.LASF9
 481 00fa 01       		.byte	0x1
 482 00fb 13       		.byte	0x13
 483 00fc BD000000 		.4byte	0xbd
 484 0100 01       		.byte	0x1
 485 0101 05       		.byte	0x5
 486 0102 03       		.byte	0x3
 487 0103 00000000 		.4byte	iopinTemp
 488 0107 00       		.byte	0x0
 489              		.section	.debug_abbrev
 490 0000 01       		.uleb128 0x1
 491 0001 11       		.uleb128 0x11
 492 0002 01       		.byte	0x1
 493 0003 10       		.uleb128 0x10
 494 0004 06       		.uleb128 0x6
 495 0005 12       		.uleb128 0x12
 496 0006 01       		.uleb128 0x1
 497 0007 11       		.uleb128 0x11
 498 0008 01       		.uleb128 0x1
 499 0009 25       		.uleb128 0x25
 500 000a 0E       		.uleb128 0xe
 501 000b 13       		.uleb128 0x13
 502 000c 0B       		.uleb128 0xb
 503 000d 03       		.uleb128 0x3
 504 000e 0E       		.uleb128 0xe
 505 000f 1B       		.uleb128 0x1b
 506 0010 0E       		.uleb128 0xe
 507 0011 00       		.byte	0x0
 508 0012 00       		.byte	0x0
 509 0013 02       		.uleb128 0x2
 510 0014 16       		.uleb128 0x16
 511 0015 00       		.byte	0x0
 512 0016 03       		.uleb128 0x3
 513 0017 08       		.uleb128 0x8
 514 0018 3A       		.uleb128 0x3a
 515 0019 0B       		.uleb128 0xb
 516 001a 3B       		.uleb128 0x3b
 517 001b 0B       		.uleb128 0xb
 518 001c 49       		.uleb128 0x49
 519 001d 13       		.uleb128 0x13
 520 001e 00       		.byte	0x0
 521 001f 00       		.byte	0x0
 522 0020 03       		.uleb128 0x3
 523 0021 24       		.uleb128 0x24
 524 0022 00       		.byte	0x0
 525 0023 03       		.uleb128 0x3
 526 0024 0E       		.uleb128 0xe
 527 0025 0B       		.uleb128 0xb
ARM GAS  /cygdrive/c/Users/embedded/AppData/Local/Temp/ccX8A2TU.s 			page 12


 528 0026 0B       		.uleb128 0xb
 529 0027 3E       		.uleb128 0x3e
 530 0028 0B       		.uleb128 0xb
 531 0029 00       		.byte	0x0
 532 002a 00       		.byte	0x0
 533 002b 04       		.uleb128 0x4
 534 002c 24       		.uleb128 0x24
 535 002d 00       		.byte	0x0
 536 002e 03       		.uleb128 0x3
 537 002f 08       		.uleb128 0x8
 538 0030 0B       		.uleb128 0xb
 539 0031 0B       		.uleb128 0xb
 540 0032 3E       		.uleb128 0x3e
 541 0033 0B       		.uleb128 0xb
 542 0034 00       		.byte	0x0
 543 0035 00       		.byte	0x0
 544 0036 05       		.uleb128 0x5
 545 0037 2E       		.uleb128 0x2e
 546 0038 00       		.byte	0x0
 547 0039 3F       		.uleb128 0x3f
 548 003a 0C       		.uleb128 0xc
 549 003b 03       		.uleb128 0x3
 550 003c 0E       		.uleb128 0xe
 551 003d 3A       		.uleb128 0x3a
 552 003e 0B       		.uleb128 0xb
 553 003f 3B       		.uleb128 0x3b
 554 0040 0B       		.uleb128 0xb
 555 0041 27       		.uleb128 0x27
 556 0042 0C       		.uleb128 0xc
 557 0043 49       		.uleb128 0x49
 558 0044 13       		.uleb128 0x13
 559 0045 11       		.uleb128 0x11
 560 0046 01       		.uleb128 0x1
 561 0047 12       		.uleb128 0x12
 562 0048 01       		.uleb128 0x1
 563 0049 40       		.uleb128 0x40
 564 004a 0A       		.uleb128 0xa
 565 004b 00       		.byte	0x0
 566 004c 00       		.byte	0x0
 567 004d 06       		.uleb128 0x6
 568 004e 2E       		.uleb128 0x2e
 569 004f 01       		.byte	0x1
 570 0050 01       		.uleb128 0x1
 571 0051 13       		.uleb128 0x13
 572 0052 3F       		.uleb128 0x3f
 573 0053 0C       		.uleb128 0xc
 574 0054 03       		.uleb128 0x3
 575 0055 0E       		.uleb128 0xe
 576 0056 3A       		.uleb128 0x3a
 577 0057 0B       		.uleb128 0xb
 578 0058 3B       		.uleb128 0x3b
 579 0059 0B       		.uleb128 0xb
 580 005a 27       		.uleb128 0x27
 581 005b 0C       		.uleb128 0xc
 582 005c 49       		.uleb128 0x49
 583 005d 13       		.uleb128 0x13
 584 005e 11       		.uleb128 0x11
ARM GAS  /cygdrive/c/Users/embedded/AppData/Local/Temp/ccX8A2TU.s 			page 13


 585 005f 01       		.uleb128 0x1
 586 0060 12       		.uleb128 0x12
 587 0061 01       		.uleb128 0x1
 588 0062 40       		.uleb128 0x40
 589 0063 06       		.uleb128 0x6
 590 0064 00       		.byte	0x0
 591 0065 00       		.byte	0x0
 592 0066 07       		.uleb128 0x7
 593 0067 34       		.uleb128 0x34
 594 0068 00       		.byte	0x0
 595 0069 03       		.uleb128 0x3
 596 006a 08       		.uleb128 0x8
 597 006b 3A       		.uleb128 0x3a
 598 006c 0B       		.uleb128 0xb
 599 006d 3B       		.uleb128 0x3b
 600 006e 0B       		.uleb128 0xb
 601 006f 49       		.uleb128 0x49
 602 0070 13       		.uleb128 0x13
 603 0071 02       		.uleb128 0x2
 604 0072 06       		.uleb128 0x6
 605 0073 00       		.byte	0x0
 606 0074 00       		.byte	0x0
 607 0075 08       		.uleb128 0x8
 608 0076 34       		.uleb128 0x34
 609 0077 00       		.byte	0x0
 610 0078 03       		.uleb128 0x3
 611 0079 0E       		.uleb128 0xe
 612 007a 3A       		.uleb128 0x3a
 613 007b 0B       		.uleb128 0xb
 614 007c 3B       		.uleb128 0x3b
 615 007d 0B       		.uleb128 0xb
 616 007e 49       		.uleb128 0x49
 617 007f 13       		.uleb128 0x13
 618 0080 02       		.uleb128 0x2
 619 0081 0A       		.uleb128 0xa
 620 0082 00       		.byte	0x0
 621 0083 00       		.byte	0x0
 622 0084 09       		.uleb128 0x9
 623 0085 34       		.uleb128 0x34
 624 0086 00       		.byte	0x0
 625 0087 03       		.uleb128 0x3
 626 0088 08       		.uleb128 0x8
 627 0089 3A       		.uleb128 0x3a
 628 008a 0B       		.uleb128 0xb
 629 008b 3B       		.uleb128 0x3b
 630 008c 0B       		.uleb128 0xb
 631 008d 49       		.uleb128 0x49
 632 008e 13       		.uleb128 0x13
 633 008f 02       		.uleb128 0x2
 634 0090 0A       		.uleb128 0xa
 635 0091 00       		.byte	0x0
 636 0092 00       		.byte	0x0
 637 0093 0A       		.uleb128 0xa
 638 0094 01       		.uleb128 0x1
 639 0095 01       		.byte	0x1
 640 0096 01       		.uleb128 0x1
 641 0097 13       		.uleb128 0x13
ARM GAS  /cygdrive/c/Users/embedded/AppData/Local/Temp/ccX8A2TU.s 			page 14


 642 0098 49       		.uleb128 0x49
 643 0099 13       		.uleb128 0x13
 644 009a 00       		.byte	0x0
 645 009b 00       		.byte	0x0
 646 009c 0B       		.uleb128 0xb
 647 009d 21       		.uleb128 0x21
 648 009e 00       		.byte	0x0
 649 009f 49       		.uleb128 0x49
 650 00a0 13       		.uleb128 0x13
 651 00a1 2F       		.uleb128 0x2f
 652 00a2 0B       		.uleb128 0xb
 653 00a3 00       		.byte	0x0
 654 00a4 00       		.byte	0x0
 655 00a5 0C       		.uleb128 0xc
 656 00a6 2E       		.uleb128 0x2e
 657 00a7 00       		.byte	0x0
 658 00a8 3F       		.uleb128 0x3f
 659 00a9 0C       		.uleb128 0xc
 660 00aa 03       		.uleb128 0x3
 661 00ab 0E       		.uleb128 0xe
 662 00ac 3A       		.uleb128 0x3a
 663 00ad 0B       		.uleb128 0xb
 664 00ae 3B       		.uleb128 0x3b
 665 00af 0B       		.uleb128 0xb
 666 00b0 49       		.uleb128 0x49
 667 00b1 13       		.uleb128 0x13
 668 00b2 11       		.uleb128 0x11
 669 00b3 01       		.uleb128 0x1
 670 00b4 12       		.uleb128 0x12
 671 00b5 01       		.uleb128 0x1
 672 00b6 40       		.uleb128 0x40
 673 00b7 06       		.uleb128 0x6
 674 00b8 00       		.byte	0x0
 675 00b9 00       		.byte	0x0
 676 00ba 0D       		.uleb128 0xd
 677 00bb 34       		.uleb128 0x34
 678 00bc 00       		.byte	0x0
 679 00bd 03       		.uleb128 0x3
 680 00be 0E       		.uleb128 0xe
 681 00bf 3A       		.uleb128 0x3a
 682 00c0 0B       		.uleb128 0xb
 683 00c1 3B       		.uleb128 0x3b
 684 00c2 0B       		.uleb128 0xb
 685 00c3 49       		.uleb128 0x49
 686 00c4 13       		.uleb128 0x13
 687 00c5 3F       		.uleb128 0x3f
 688 00c6 0C       		.uleb128 0xc
 689 00c7 02       		.uleb128 0x2
 690 00c8 0A       		.uleb128 0xa
 691 00c9 00       		.byte	0x0
 692 00ca 00       		.byte	0x0
 693 00cb 00       		.byte	0x0
 694              		.section	.debug_pubnames,"",%progbits
 695 0000 47000000 		.4byte	0x47
 696 0004 0200     		.2byte	0x2
 697 0006 00000000 		.4byte	.Ldebug_info0
 698 000a 08010000 		.4byte	0x108
ARM GAS  /cygdrive/c/Users/embedded/AppData/Local/Temp/ccX8A2TU.s 			page 15


 699 000e 61000000 		.4byte	0x61
 700 0012 67657442 		.ascii	"getButton\000"
 700      7574746F 
 700      6E00
 701 001c 78000000 		.4byte	0x78
 702 0020 63686563 		.ascii	"checkIO\000"
 702      6B494F00 
 703 0028 DD000000 		.4byte	0xdd
 704 002c 67657441 		.ascii	"getAnyButton\000"
 704      6E794275 
 704      74746F6E 
 704      00
 705 0039 F5000000 		.4byte	0xf5
 706 003d 696F7069 		.ascii	"iopinTemp\000"
 706      6E54656D 
 706      7000
 707 0047 00000000 		.4byte	0x0
 708              		.section	.debug_aranges,"",%progbits
 709 0000 1C000000 		.4byte	0x1c
 710 0004 0200     		.2byte	0x2
 711 0006 00000000 		.4byte	.Ldebug_info0
 712 000a 04       		.byte	0x4
 713 000b 00       		.byte	0x0
 714 000c 0000     		.2byte	0x0
 715 000e 0000     		.2byte	0x0
 716 0010 00000000 		.4byte	.Ltext0
 717 0014 58010000 		.4byte	.Letext0-.Ltext0
 718 0018 00000000 		.4byte	0x0
 719 001c 00000000 		.4byte	0x0
 720              		.section	.debug_str,"MS",%progbits,1
 721              	.LASF13:
 722 0000 63686563 		.ascii	"checkIO\000"
 722      6B494F00 
 723              	.LASF0:
 724 0008 756E7369 		.ascii	"unsigned char\000"
 724      676E6564 
 724      20636861 
 724      7200
 725              	.LASF5:
 726 0016 6C6F6E67 		.ascii	"long unsigned int\000"
 726      20756E73 
 726      69676E65 
 726      6420696E 
 726      7400
 727              	.LASF1:
 728 0028 73686F72 		.ascii	"short unsigned int\000"
 728      7420756E 
 728      7369676E 
 728      65642069 
 728      6E7400
 729              	.LASF7:
 730 003b 67657442 		.ascii	"getButton\000"
 730      7574746F 
 730      6E00
 731              	.LASF2:
 732 0045 756E7369 		.ascii	"unsigned int\000"
 732      676E6564 
ARM GAS  /cygdrive/c/Users/embedded/AppData/Local/Temp/ccX8A2TU.s 			page 16


 732      20696E74 
 732      00
 733              	.LASF8:
 734 0052 67657441 		.ascii	"getAnyButton\000"
 734      6E794275 
 734      74746F6E 
 734      00
 735              	.LASF10:
 736 005f 474E5520 		.ascii	"GNU C 4.1.1\000"
 736      4320342E 
 736      312E3100 
 737              	.LASF6:
 738 006b 63757272 		.ascii	"curriopin\000"
 738      696F7069 
 738      6E00
 739              	.LASF4:
 740 0075 73686F72 		.ascii	"short int\000"
 740      7420696E 
 740      7400
 741              	.LASF11:
 742 007f 6770696F 		.ascii	"gpio.c\000"
 742      2E6300
 743              	.LASF12:
 744 0086 2F637967 		.ascii	"/cygdrive/c/Users/embedded/Desktop/finalo_lpc2148_v"
 744      64726976 
 744      652F632F 
 744      55736572 
 744      732F656D 
 745 00b9 332F7265 		.ascii	"3/reflexgame\000"
 745      666C6578 
 745      67616D65 
 745      00
 746              	.LASF3:
 747 00c6 7369676E 		.ascii	"signed char\000"
 747      65642063 
 747      68617200 
 748              	.LASF9:
 749 00d2 696F7069 		.ascii	"iopinTemp\000"
 749      6E54656D 
 749      7000
 750              		.ident	"GCC: (GNU) 4.1.1"
ARM GAS  /cygdrive/c/Users/embedded/AppData/Local/Temp/ccX8A2TU.s 			page 17


DEFINED SYMBOLS
                            *ABS*:00000000 gpio.c
/cygdrive/c/Users/embedded/AppData/Local/Temp/ccX8A2TU.s:1      .text:00000000 $t
/cygdrive/c/Users/embedded/AppData/Local/Temp/ccX8A2TU.s:16     .text:00000000 getButton
/cygdrive/c/Users/embedded/AppData/Local/Temp/ccX8A2TU.s:82     .text:00000054 $d
/cygdrive/c/Users/embedded/AppData/Local/Temp/ccX8A2TU.s:95     .text:0000006c checkIO
/cygdrive/c/Users/embedded/AppData/Local/Temp/ccX8A2TU.s:92     .text:0000006c $t
/cygdrive/c/Users/embedded/AppData/Local/Temp/ccX8A2TU.s:165    .text:000000d0 $d
/cygdrive/c/Users/embedded/AppData/Local/Temp/ccX8A2TU.s:259    .rodata:00000000 C.0.1407
/cygdrive/c/Users/embedded/AppData/Local/Temp/ccX8A2TU.s:253    .bss:00000000 iopinTemp
/cygdrive/c/Users/embedded/AppData/Local/Temp/ccX8A2TU.s:175    .text:000000dc getAnyButton
/cygdrive/c/Users/embedded/AppData/Local/Temp/ccX8A2TU.s:172    .text:000000dc $t
/cygdrive/c/Users/embedded/AppData/Local/Temp/ccX8A2TU.s:240    .text:0000013c $d
/cygdrive/c/Users/embedded/AppData/Local/Temp/ccX8A2TU.s:260    .rodata:00000000 $d

UNDEFINED SYMBOLS
memcmp
memcpy
