ARM GAS  /cygdrive/c/Users/embedded/AppData/Local/Temp/ccHdAOHQ.s 			page 1


   1              		.code	16
   2              		.file	"main.c"
   3              		.section	.debug_abbrev,"",%progbits
   4              	.Ldebug_abbrev0:
   5              		.section	.debug_info,"",%progbits
   6              	.Ldebug_info0:
   7              		.section	.debug_line,"",%progbits
   8              	.Ldebug_line0:
   9 0000 01010000 		.text
   9      02004700 
   9      00000201 
   9      FB0E0D00 
   9      01010101 
  10              	.Ltext0:
  11              		.align	2
  12              		.global	appTick
  13              		.code 16
  14              		.thumb_func
  15              		.type	appTick, %function
  16              	appTick:
  17              	.LFB4:
  18              		.file 1 "main.c"
   1:main.c        **** /******************************************************************************
   2:main.c        ****  *
   3:main.c        ****  * Copyright:
   4:main.c        ****  *    (C) 2000 - 2007 Embedded Artists AB
   5:main.c        ****  *
   6:main.c        ****  * Description:
   7:main.c        ****  *		Reflex, The Game
   8:main.c        ****  *
   9:main.c        ****  * 		Basically it's modified Embedded Artists' test program by Dawid Michalowski, Karolina Dabrowsk
  10:main.c        ****  *		and Katarzyna Meckier.
  11:main.c        ****  *	  
  12:main.c        ****  *
  13:main.c        ****  *****************************************************************************/
  14:main.c        **** 
  15:main.c        **** #include "../pre_emptive_os/api/osapi.h"
  16:main.c        **** #include "../pre_emptive_os/api/general.h"
  17:main.c        **** #include <printf_P.h>
  18:main.c        **** #include <ea_init.h>
  19:main.c        **** #include <lpc2xxx.h>
  20:main.c        **** #include <consol.h>
  21:main.c        **** 
  22:main.c        **** 
  23:main.c        **** #define GAMEPROC_STACK_SIZE 2048
  24:main.c        **** #define MOTORPROC_STACK_SIZE 2048
  25:main.c        **** #define MATRIXPROC_STACK_SIZE 2048
  26:main.c        **** #define SOUNDPROC_STACK_SIZE 2048
  27:main.c        **** 
  28:main.c        **** #define INIT_STACK_SIZE  400
  29:main.c        **** #define NUMBER_OF_ARROWS 10
  30:main.c        **** #define  SPI_CS   0x00008000
  31:main.c        **** 
  32:main.c        **** 
  33:main.c        **** /***************   STACKs   *****************/
  34:main.c        **** static tU8 gameProcStack[GAMEPROC_STACK_SIZE];
  35:main.c        **** static tU8 motorProcStack[MOTORPROC_STACK_SIZE];
ARM GAS  /cygdrive/c/Users/embedded/AppData/Local/Temp/ccHdAOHQ.s 			page 2


  36:main.c        **** static tU8 matrixProcStack[MATRIXPROC_STACK_SIZE];
  37:main.c        **** static tU8 soundProcStack[SOUNDPROC_STACK_SIZE];
  38:main.c        **** static tU8 initStack[INIT_STACK_SIZE];
  39:main.c        **** 
  40:main.c        **** /***************   PIDs   ******************/
  41:main.c        **** static tU8 pid1;
  42:main.c        **** static tU8 pid2;
  43:main.c        **** static tU8 pid3;
  44:main.c        **** static tU8 pid4;
  45:main.c        **** 
  46:main.c        **** /**************   PROCs   ******************/
  47:main.c        **** static void gameProc(void* arg);
  48:main.c        **** static void motorProc(void* arg);
  49:main.c        **** static void matrixProc(void* arg);
  50:main.c        **** static void soundProc(void* arg);
  51:main.c        **** static void initProc(void* arg);
  52:main.c        **** 
  53:main.c        **** /**************  FUNCTIONs   ***************/
  54:main.c        **** void printMatrix(tU8 arrowKierunek);
  55:main.c        **** void startTimer1(void);
  56:main.c        **** int getAnyButton(void);
  57:main.c        **** int getButton(void);
  58:main.c        **** tU8 checkIO(void);
  59:main.c        **** int getSomeTime(void);
  60:main.c        **** void soundManager(int soundNumber);
  61:main.c        **** void messageOnLCD(char *str, tU8 important);
  62:main.c        **** void testRGB(tU8 r, tU8 g, tU8 b);
  63:main.c        **** void messageOnLCD(char *str, tU8 important);
  64:main.c        **** void testMotor(void);
  65:main.c        **** void printIntro(void);
  66:main.c        **** void printInfo(void);
  67:main.c        **** void printPatternInfo(void);
  68:main.c        **** void printScoreboard(char table[10][128], int sc);
  69:main.c        **** 
  70:main.c        **** /************   GLOBAL VARs   **************/
  71:main.c        **** int soundNumber=-1;
  72:main.c        **** int ledPattern=4;
  73:main.c        **** volatile tU32 msClock = 0;
  74:main.c        **** tU8 motorplay=0;
  75:main.c        **** 
  76:main.c        **** int main(void)
  77:main.c        **** {
  78:main.c        **** 	tU8 error;
  79:main.c        **** 	tU8 pid;
  80:main.c        **** 
  81:main.c        **** 	//immediately turn off buzzer (if connected)
  82:main.c        **** 	IODIR0 |= 0x00000080;
  83:main.c        **** 	IOSET0  = 0x00000080;
  84:main.c        **** 
  85:main.c        **** 	osInit();
  86:main.c        **** 	osCreateProcess(initProc, initStack, INIT_STACK_SIZE, &pid, 1, NULL, &error);
  87:main.c        **** 	osStartProcess(pid, &error);
  88:main.c        **** 
  89:main.c        **** 	osStart();
  90:main.c        **** 	return 0;
  91:main.c        **** }
  92:main.c        **** 
ARM GAS  /cygdrive/c/Users/embedded/AppData/Local/Temp/ccHdAOHQ.s 			page 3


  93:main.c        **** static void initProc(void* arg)
  94:main.c        **** {
  95:main.c        **** 	tU8 error;
  96:main.c        **** 
  97:main.c        **** 	eaInit();
  98:main.c        **** 	osCreateProcess(gameProc, gameProcStack, GAMEPROC_STACK_SIZE, &pid1, 3, NULL, &error);
  99:main.c        **** 	osStartProcess(pid1, &error);
 100:main.c        **** 
 101:main.c        **** 	osDeleteProcess();
 102:main.c        **** }
 103:main.c        **** 
 104:main.c        **** void appTick(tU32 elapsedTime)
 105:main.c        **** {
  19              		.loc 1 105 0
  20              	.LVL0:
 106:main.c        **** 	msClock += elapsedTime;
  21              		.loc 1 106 0
  22 0000 024A     		ldr	r2, .L3
  23 0002 1368     		ldr	r3, [r2]
  24 0004 1B18     		add	r3, r3, r0
  25              		.loc 1 105 0
  26              		@ lr needed for prologue
  27              		.loc 1 106 0
  28 0006 1360     		str	r3, [r2]
 107:main.c        **** }
  29              		.loc 1 107 0
  30              		@ sp needed for prologue
  31 0008 7047     		bx	lr
  32              	.L4:
  33 000a 0000     		.align	2
  34              	.L3:
  35 000c 00000000 		.word	msClock
  36              	.LFE4:
  37              		.size	appTick, .-appTick
  38              		.align	2
  39              		.global	main
  40              		.code 16
  41              		.thumb_func
  42              		.type	main, %function
  43              	main:
  44              	.LFB2:
  45              		.loc 1 77 0
  46 0010 30B5     		push	{r4, r5, lr}
  47              	.LCFI0:
  48              		.loc 1 82 0
  49 0012 124A     		ldr	r2, .L7
  50 0014 1368     		ldr	r3, [r2]
  51 0016 8021     		mov	r1, #128
  52 0018 0B43     		orr	r3, r3, r1
  53 001a 1360     		str	r3, [r2]
  54              		.loc 1 83 0
  55 001c 104B     		ldr	r3, .L7+4
  56              		.loc 1 77 0
  57 001e 84B0     		sub	sp, sp, #16
  58              	.LCFI1:
  59              		.loc 1 83 0
  60 0020 1960     		str	r1, [r3]
ARM GAS  /cygdrive/c/Users/embedded/AppData/Local/Temp/ccHdAOHQ.s 			page 4


  61              		.loc 1 85 0
  62 0022 FFF7FEFF 		bl	osInit
  63              		.loc 1 86 0
  64 0026 6D46     		mov	r5, sp
  65 0028 0123     		mov	r3, #1
  66 002a 0E35     		add	r5, r5, #14
  67 002c 0093     		str	r3, [sp]
  68 002e 6C46     		mov	r4, sp
  69 0030 0023     		mov	r3, #0
  70 0032 C822     		mov	r2, #200
  71 0034 5200     		lsl	r2, r2, #1
  72 0036 0193     		str	r3, [sp, #4]
  73 0038 0F34     		add	r4, r4, #15
  74 003a 2B1C     		mov	r3, r5
  75 003c 0948     		ldr	r0, .L7+8
  76 003e 0A49     		ldr	r1, .L7+12
  77 0040 0294     		str	r4, [sp, #8]
  78 0042 FFF7FEFF 		bl	osCreateProcess
  79              	.LVL1:
  80              		.loc 1 87 0
  81 0046 2878     		ldrb	r0, [r5]
  82 0048 211C     		mov	r1, r4
  83 004a FFF7FEFF 		bl	osStartProcess
  84              		.loc 1 89 0
  85 004e FFF7FEFF 		bl	osStart
  86              		.loc 1 91 0
  87 0052 0020     		mov	r0, #0
  88 0054 04B0     		add	sp, sp, #16
  89              		@ sp needed for prologue
  90 0056 30BC     		pop	{r4, r5}
  91 0058 02BC     		pop	{r1}
  92 005a 0847     		bx	r1
  93              	.L8:
  94              		.align	2
  95              	.L7:
  96 005c 088002E0 		.word	-536707064
  97 0060 048002E0 		.word	-536707068
  98 0064 00000000 		.word	initProc
  99 0068 05200000 		.word	initStack
 100              	.LFE2:
 101              		.size	main, .-main
 102              		.align	2
 103              		.code 16
 104              		.thumb_func
 105              		.type	initProc, %function
 106              	initProc:
 107              	.LFB3:
 108              		.loc 1 94 0
 109 006c 30B5     		push	{r4, r5, lr}
 110              	.LCFI2:
 111              	.LVL2:
 112 006e 84B0     		sub	sp, sp, #16
 113              	.LCFI3:
 114              		.loc 1 97 0
 115 0070 FFF7FEFF 		bl	eaInit
 116              	.LVL3:
 117              		.loc 1 98 0
ARM GAS  /cygdrive/c/Users/embedded/AppData/Local/Temp/ccHdAOHQ.s 			page 5


 118 0074 0C4D     		ldr	r5, .L11
 119 0076 0323     		mov	r3, #3
 120 0078 0093     		str	r3, [sp]
 121 007a 6C46     		mov	r4, sp
 122 007c 0023     		mov	r3, #0
 123 007e 8022     		mov	r2, #128
 124 0080 1201     		lsl	r2, r2, #4
 125 0082 0193     		str	r3, [sp, #4]
 126 0084 0F34     		add	r4, r4, #15
 127 0086 2B1C     		mov	r3, r5
 128 0088 0848     		ldr	r0, .L11+4
 129 008a 0949     		ldr	r1, .L11+8
 130 008c 0294     		str	r4, [sp, #8]
 131 008e FFF7FEFF 		bl	osCreateProcess
 132              		.loc 1 99 0
 133 0092 2878     		ldrb	r0, [r5]
 134 0094 211C     		mov	r1, r4
 135 0096 FFF7FEFF 		bl	osStartProcess
 136              		.loc 1 101 0
 137 009a FFF7FEFF 		bl	osDeleteProcess
 138              		.loc 1 102 0
 139 009e 04B0     		add	sp, sp, #16
 140              		@ sp needed for prologue
 141 00a0 30BC     		pop	{r4, r5}
 142 00a2 01BC     		pop	{r0}
 143 00a4 0047     		bx	r0
 144              	.L12:
 145 00a6 0000     		.align	2
 146              	.L11:
 147 00a8 95210000 		.word	pid1
 148 00ac 00000000 		.word	gameProc
 149 00b0 05000000 		.word	gameProcStack
 150              	.LFE3:
 151              		.size	initProc, .-initProc
 152              		.align	2
 153              		.code 16
 154              		.thumb_func
 155              		.type	soundProc, %function
 156              	soundProc:
 157              	.LFB8:
 108:main.c        **** 
 109:main.c        **** static void gameProc(void* arg)
 110:main.c        **** {
 111:main.c        **** 	testRGB(255, 255, 255);
 112:main.c        **** 	tU8  error;
 113:main.c        **** 	printIntro();
 114:main.c        **** 	osCreateProcess(matrixProc, matrixProcStack, MATRIXPROC_STACK_SIZE, &pid2, 3, NULL, &error);
 115:main.c        **** 	printf("Launching LED Matrix...\n");
 116:main.c        **** 	messageOnLCD("LED Matrix\nruns...", 1);
 117:main.c        ****     osStartProcess(pid2, &error);
 118:main.c        **** 	printPatternInfo();
 119:main.c        **** 	osCreateProcess(motorProc, motorProcStack, MOTORPROC_STACK_SIZE, &pid3, 3, NULL, &error);
 120:main.c        **** 	printf("Motor test...\n");
 121:main.c        **** 	messageOnLCD("Motor\ntest...", 1);
 122:main.c        **** 	osStartProcess(pid3, &error);
 123:main.c        **** 	messageOnLCD("Reflex, The Game\nLoading...", 1);
 124:main.c        **** 	printf("Playing startup sound...\n");
ARM GAS  /cygdrive/c/Users/embedded/AppData/Local/Temp/ccHdAOHQ.s 			page 6


 125:main.c        **** 	soundManager(0); //Playing startup without proc
 126:main.c        **** 	osCreateProcess(soundProc, soundProcStack, SOUNDPROC_STACK_SIZE, &pid4, 3, NULL, &error); 
 127:main.c        **** 	printf("Launching sound manager process...\n");
 128:main.c        ****     osStartProcess(pid4, &error);
 129:main.c        **** 	messageOnLCD(" For more info\n check terminal.", 1);
 130:main.c        **** 	printInfo();
 131:main.c        **** 	osSleep(64);  //wait for a short
 132:main.c        **** 	
 133:main.c        **** 	//main game code here
 134:main.c        **** 	int j;
 135:main.c        **** 	int timeInMs, avgTime;
 136:main.c        **** 	int sumTime=0;
 137:main.c        **** 	tU32 seed;
 138:main.c        **** 	char scoreBoard[10][128];
 139:main.c        **** 	tU8 scorecounter=0;
 140:main.c        **** 	int line;
 141:main.c        **** 	char buffer[32];
 142:main.c        **** 	for(;;)
 143:main.c        **** 	{
 144:main.c        **** 		printf("Game loop starts...\n");
 145:main.c        **** 		sumTime=0;
 146:main.c        **** 		ledPattern=6;
 147:main.c        **** 		printf("LEDMATRIX: blinking %d pattern...\n", ledPattern);
 148:main.c        **** 		testRGB(0, 0, 255);
 149:main.c        **** 		printf("RGB: emitting blue...\n");
 150:main.c        **** 		messageOnLCD("Reflex, The Game\nPRESS ANY BUTTON", 1);
 151:main.c        **** 		printf("Getting seed...\n");
 152:main.c        **** 		seed=getSomeTime();
 153:main.c        **** 		printf("Seed: %d\n", seed);
 154:main.c        **** 		srand(seed);
 155:main.c        **** 		printf("Planted a seed in srand-ground!\n");
 156:main.c        **** 		ledPattern=4;
 157:main.c        **** 		printf("LEDMATRIX: blinking %d pattern...\n", ledPattern);
 158:main.c        **** 		osSleep(32);
 159:main.c        **** 		messageOnLCD(" Let the hunger \n  games begin!  ", 1);
 160:main.c        **** 		for(j=0;j<NUMBER_OF_ARROWS;j++)
 161:main.c        **** 		{	
 162:main.c        **** 			ledPattern=rand() % 4;
 163:main.c        **** 			printf("LEDMATRIX: blinking %d pattern...\n", ledPattern);
 164:main.c        **** 			motorplay=1;
 165:main.c        **** 			//osSleep(2); //lil helper
 166:main.c        **** 			timeInMs = getSomeTime();
 167:main.c        **** 			motorplay=0;
 168:main.c        **** 			sumTime += timeInMs;
 169:main.c        **** 			printf("Time: %dms\n", timeInMs);
 170:main.c        **** 			if(getButton()!=ledPattern)
 171:main.c        **** 				break;
 172:main.c        **** 			if(timeInMs>5000)
 173:main.c        **** 			{
 174:main.c        **** 				messageOnLCD("Elapsed time:\nmore then 5s!", 1);
 175:main.c        **** 				printf("Time crossed a deadline (5s)!\n");
 176:main.c        **** 				osSleep(100);
 177:main.c        **** 				break;
 178:main.c        **** 			}
 179:main.c        **** 			ledPattern=4;
 180:main.c        **** 			printf("LEDMATRIX: blinking %d pattern...\n", ledPattern);
 181:main.c        **** 			snprintf(buffer, sizeof(buffer), "Elapsed time:\n%dms", timeInMs);
ARM GAS  /cygdrive/c/Users/embedded/AppData/Local/Temp/ccHdAOHQ.s 			page 7


 182:main.c        **** 			messageOnLCD(buffer,1);
 183:main.c        **** 			osSleep(32);
 184:main.c        **** 		}
 185:main.c        **** 		if(j==NUMBER_OF_ARROWS)
 186:main.c        **** 		{
 187:main.c        **** 			ledPattern=5;
 188:main.c        **** 			printf("LEDMATRIX: blinking %d pattern...\n", ledPattern);
 189:main.c        **** 			testRGB(0, 255, 0);
 190:main.c        **** 			printf("RGB: emitting green...\n");
 191:main.c        **** 			avgTime=sumTime/NUMBER_OF_ARROWS;
 192:main.c        **** 			messageOnLCD("   Good game!   \n    You won!    ", 1);
 193:main.c        **** 			soundNumber = 2;
 194:main.c        **** 			printf("Playing win sound...\n");
 195:main.c        **** 			osSleep(300);
 196:main.c        **** 			snprintf(buffer, sizeof(buffer), "Avg time:\n%dms", avgTime);
 197:main.c        **** 			messageOnLCD(buffer,1);
 198:main.c        **** 			osSleep(64);
 199:main.c        **** 			messageOnLCD("   Good game!   \n    You won!    ", 1);
 200:main.c        **** 			printf("Good game! Avg time in this game: %dms\n", avgTime);
 201:main.c        **** 			scorecounter++;
 202:main.c        **** 			line = (scorecounter-1)%10;
 203:main.c        **** 			printf("Filling scoreboard...\n", ledPattern);
 204:main.c        **** 			snprintf(scoreBoard[line], 128, "PLAYER %d | Avg. time: %dms\n", scorecounter, avgTime);
 205:main.c        **** 		}
 206:main.c        **** 		else
 207:main.c        **** 		{
 208:main.c        **** 			ledPattern=7; //tutaj pattern bg
 209:main.c        **** 			printf("LEDMATRIX: blinking %d pattern...\n", ledPattern);
 210:main.c        **** 			testRGB(255, 0, 0); //led bg
 211:main.c        **** 			printf("RGB: emitting red...\n");
 212:main.c        **** 			messageOnLCD("      YOU\n       LOSE!", 1);
 213:main.c        **** 			printf("You lost! Try again!\n");
 214:main.c        **** 			soundNumber = 1;	
 215:main.c        **** 			printf("Playing lose sound...\n", ledPattern);
 216:main.c        **** 			osSleep(250);
 217:main.c        **** 		}
 218:main.c        **** 		osSleep(50);
 219:main.c        **** 		messageOnLCD("   Scoreboard\n  in terminal.", 1);
 220:main.c        **** 		printf("Loading scoreboard...\n", ledPattern);
 221:main.c        **** 		printScoreboard(scoreBoard, scorecounter);
 222:main.c        **** 		osSleep(100);
 223:main.c        **** 		messageOnLCD("PRESS ANY BUTTON\n  FOR NEW GAME", 1);
 224:main.c        **** 		while(!(getAnyButton()))
 225:main.c        **** 			osSleep(1);
 226:main.c        **** 		osSleep(64);
 227:main.c        **** 	}
 228:main.c        **** 		
 229:main.c        **** 	osSleep(100);
 230:main.c        **** }
 231:main.c        **** 
 232:main.c        **** static void motorProc(void* arg)
 233:main.c        **** {
 234:main.c        **** 	for(;;)
 235:main.c        **** 	{
 236:main.c        **** 		if(motorplay)
 237:main.c        **** 			testMotor();
 238:main.c        **** 		osSleep(2);
ARM GAS  /cygdrive/c/Users/embedded/AppData/Local/Temp/ccHdAOHQ.s 			page 8


 239:main.c        **** 	}
 240:main.c        **** }
 241:main.c        **** 
 242:main.c        **** static void matrixProc(void* arg)
 243:main.c        **** {
 244:main.c        **** 	PINSEL0 |= 0x00001500 ;  //Initiering av SPI
 245:main.c        **** 	SPI_SPCCR = 0x08;    
 246:main.c        **** 	SPI_SPCR  = 0x60;
 247:main.c        **** 	IODIR0 |= SPI_CS;
 248:main.c        **** 	startTimer1();
 249:main.c        **** 	for(;;)
 250:main.c        **** 	{
 251:main.c        **** 		printMatrix(ledPattern);
 252:main.c        **** 	} 
 253:main.c        **** }
 254:main.c        **** 
 255:main.c        **** static void soundProc(void* arg)
 256:main.c        **** {
 158              		.loc 1 256 0
 159 00b4 10B5     		push	{r4, lr}
 160              	.LCFI4:
 161              	.LVL4:
 162              	.L23:
 257:main.c        **** 	for(;;)
 258:main.c        **** 	{
 259:main.c        **** 		if(soundNumber>0)
 163              		.loc 1 259 0
 164 00b6 054C     		ldr	r4, .L24
 165 00b8 2068     		ldr	r0, [r4]
 166              	.LVL5:
 167 00ba 0028     		cmp	r0, #0
 168 00bc FBDD     		ble	.L23
 260:main.c        **** 		{
 261:main.c        **** 			soundManager(soundNumber);
 169              		.loc 1 261 0
 170 00be FFF7FEFF 		bl	soundManager
 262:main.c        **** 			soundNumber=-1;
 171              		.loc 1 262 0
 172 00c2 0123     		mov	r3, #1
 173 00c4 5B42     		neg	r3, r3
 174 00c6 2360     		str	r3, [r4]
 175 00c8 F5E7     		b	.L23
 176              	.L25:
 177 00ca 0000     		.align	2
 178              	.L24:
 179 00cc 00000000 		.word	soundNumber
 180              	.LFE8:
 181              		.size	soundProc, .-soundProc
 182              		.section	.rodata.str1.4,"aMS",%progbits,1
 183              		.align	2
 184              	.LC10:
 185 0000 4C61756E 		.ascii	"Launching LED Matrix...\012\000"
 185      6368696E 
 185      67204C45 
 185      44204D61 
 185      74726978 
 186 0019 000000   		.align	2
ARM GAS  /cygdrive/c/Users/embedded/AppData/Local/Temp/ccHdAOHQ.s 			page 9


 187              	.LC12:
 188 001c 4C454420 		.ascii	"LED Matrix\012runs...\000"
 188      4D617472 
 188      69780A72 
 188      756E732E 
 188      2E2E00
 189 002f 00       		.align	2
 190              	.LC17:
 191 0030 4D6F746F 		.ascii	"Motor test...\012\000"
 191      72207465 
 191      73742E2E 
 191      2E0A00
 192 003f 00       		.align	2
 193              	.LC19:
 194 0040 4D6F746F 		.ascii	"Motor\012test...\000"
 194      720A7465 
 194      73742E2E 
 194      2E00
 195 004e 0000     		.align	2
 196              	.LC21:
 197 0050 5265666C 		.ascii	"Reflex, The Game\012Loading...\000"
 197      65782C20 
 197      54686520 
 197      47616D65 
 197      0A4C6F61 
 198              		.align	2
 199              	.LC23:
 200 006c 506C6179 		.ascii	"Playing startup sound...\012\000"
 200      696E6720 
 200      73746172 
 200      74757020 
 200      736F756E 
 201 0086 0000     		.align	2
 202              	.LC28:
 203 0088 4C61756E 		.ascii	"Launching sound manager process...\012\000"
 203      6368696E 
 203      6720736F 
 203      756E6420 
 203      6D616E61 
 204              		.align	2
 205              	.LC30:
 206 00ac 20466F72 		.ascii	" For more info\012 check terminal.\000"
 206      206D6F72 
 206      6520696E 
 206      666F0A20 
 206      63686563 
 207              		.align	2
 208              	.LC32:
 209 00cc 47616D65 		.ascii	"Game loop starts...\012\000"
 209      206C6F6F 
 209      70207374 
 209      61727473 
 209      2E2E2E0A 
 210 00e1 000000   		.align	2
 211              	.LC35:
 212 00e4 4C45444D 		.ascii	"LEDMATRIX: blinking %d pattern...\012\000"
 212      41545249 
ARM GAS  /cygdrive/c/Users/embedded/AppData/Local/Temp/ccHdAOHQ.s 			page 10


 212      583A2062 
 212      6C696E6B 
 212      696E6720 
 213 0107 00       		.align	2
 214              	.LC37:
 215 0108 5247423A 		.ascii	"RGB: emitting blue...\012\000"
 215      20656D69 
 215      7474696E 
 215      6720626C 
 215      75652E2E 
 216 011f 00       		.align	2
 217              	.LC39:
 218 0120 5265666C 		.ascii	"Reflex, The Game\012PRESS ANY BUTTON\000"
 218      65782C20 
 218      54686520 
 218      47616D65 
 218      0A505245 
 219 0142 0000     		.align	2
 220              	.LC41:
 221 0144 47657474 		.ascii	"Getting seed...\012\000"
 221      696E6720 
 221      73656564 
 221      2E2E2E0A 
 221      00
 222 0155 000000   		.align	2
 223              	.LC43:
 224 0158 53656564 		.ascii	"Seed: %d\012\000"
 224      3A202564 
 224      0A00
 225 0162 0000     		.align	2
 226              	.LC45:
 227 0164 506C616E 		.ascii	"Planted a seed in srand-ground!\012\000"
 227      74656420 
 227      61207365 
 227      65642069 
 227      6E207372 
 228 0185 000000   		.align	2
 229              	.LC47:
 230 0188 204C6574 		.ascii	" Let the hunger \012  games begin!  \000"
 230      20746865 
 230      2068756E 
 230      67657220 
 230      0A202067 
 231 01aa 0000     		.align	2
 232              	.LC50:
 233 01ac 54696D65 		.ascii	"Time: %dms\012\000"
 233      3A202564 
 233      6D730A00 
 234              		.align	2
 235              	.LC52:
 236 01b8 456C6170 		.ascii	"Elapsed time:\012more then 5s!\000"
 236      73656420 
 236      74696D65 
 236      3A0A6D6F 
 236      72652074 
 237              		.align	2
 238              	.LC54:
ARM GAS  /cygdrive/c/Users/embedded/AppData/Local/Temp/ccHdAOHQ.s 			page 11


 239 01d4 54696D65 		.ascii	"Time crossed a deadline (5s)!\012\000"
 239      2063726F 
 239      73736564 
 239      20612064 
 239      6561646C 
 240 01f3 00       		.align	2
 241              	.LC56:
 242 01f4 456C6170 		.ascii	"Elapsed time:\012%dms\000"
 242      73656420 
 242      74696D65 
 242      3A0A2564 
 242      6D7300
 243 0207 00       		.align	2
 244              	.LC58:
 245 0208 5247423A 		.ascii	"RGB: emitting green...\012\000"
 245      20656D69 
 245      7474696E 
 245      67206772 
 245      65656E2E 
 246              		.global	__divsi3
 247              		.align	2
 248              	.LC60:
 249 0220 20202047 		.ascii	"   Good game!   \012    You won!    \000"
 249      6F6F6420 
 249      67616D65 
 249      21202020 
 249      0A202020 
 250 0242 0000     		.align	2
 251              	.LC63:
 252 0244 506C6179 		.ascii	"Playing win sound...\012\000"
 252      696E6720 
 252      77696E20 
 252      736F756E 
 252      642E2E2E 
 253 025a 0000     		.align	2
 254              	.LC65:
 255 025c 41766720 		.ascii	"Avg time:\012%dms\000"
 255      74696D65 
 255      3A0A2564 
 255      6D7300
 256 026b 00       		.align	2
 257              	.LC67:
 258 026c 476F6F64 		.ascii	"Good game! Avg time in this game: %dms\012\000"
 258      2067616D 
 258      65212041 
 258      76672074 
 258      696D6520 
 259              		.align	2
 260              	.LC69:
 261 0294 46696C6C 		.ascii	"Filling scoreboard...\012\000"
 261      696E6720 
 261      73636F72 
 261      65626F61 
 261      72642E2E 
 262              		.global	__modsi3
 263 02ab 00       		.align	2
 264              	.LC71:
ARM GAS  /cygdrive/c/Users/embedded/AppData/Local/Temp/ccHdAOHQ.s 			page 12


 265 02ac 504C4159 		.ascii	"PLAYER %d | Avg. time: %dms\012\000"
 265      45522025 
 265      64207C20 
 265      4176672E 
 265      2074696D 
 266 02c9 000000   		.align	2
 267              	.LC73:
 268 02cc 5247423A 		.ascii	"RGB: emitting red...\012\000"
 268      20656D69 
 268      7474696E 
 268      67207265 
 268      642E2E2E 
 269 02e2 0000     		.align	2
 270              	.LC75:
 271 02e4 20202020 		.ascii	"      YOU\012       LOSE!\000"
 271      2020594F 
 271      550A2020 
 271      20202020 
 271      204C4F53 
 272 02fb 00       		.align	2
 273              	.LC77:
 274 02fc 596F7520 		.ascii	"You lost! Try again!\012\000"
 274      6C6F7374 
 274      21205472 
 274      79206167 
 274      61696E21 
 275 0312 0000     		.align	2
 276              	.LC79:
 277 0314 506C6179 		.ascii	"Playing lose sound...\012\000"
 277      696E6720 
 277      6C6F7365 
 277      20736F75 
 277      6E642E2E 
 278 032b 00       		.align	2
 279              	.LC81:
 280 032c 20202053 		.ascii	"   Scoreboard\012  in terminal.\000"
 280      636F7265 
 280      626F6172 
 280      640A2020 
 280      696E2074 
 281 0349 000000   		.align	2
 282              	.LC83:
 283 034c 4C6F6164 		.ascii	"Loading scoreboard...\012\000"
 283      696E6720 
 283      73636F72 
 283      65626F61 
 283      72642E2E 
 284 0363 00       		.align	2
 285              	.LC85:
 286 0364 50524553 		.ascii	"PRESS ANY BUTTON\012  FOR NEW GAME\000"
 286      5320414E 
 286      59204255 
 286      54544F4E 
 286      0A202046 
 287              		.text
 288              		.align	2
 289              		.code 16
ARM GAS  /cygdrive/c/Users/embedded/AppData/Local/Temp/ccHdAOHQ.s 			page 13


 290              		.thumb_func
 291              		.type	gameProc, %function
 292              	gameProc:
 293              	.LFB5:
 294              		.loc 1 110 0
 295 00d0 F0B5     		push	{r4, r5, r6, r7, lr}
 296              	.LCFI5:
 297              	.LVL6:
 298 00d2 BE4C     		ldr	r4, .L44
 299              		.loc 1 111 0
 300 00d4 FF20     		mov	r0, #255
 301              	.LVL7:
 302              		.loc 1 110 0
 303 00d6 A544     		add	sp, sp, r4
 304              	.LCFI6:
 305              		.loc 1 111 0
 306 00d8 FF21     		mov	r1, #255
 307 00da FF22     		mov	r2, #255
 308 00dc FFF7FEFF 		bl	testRGB
 309              		.loc 1 114 0
 310 00e0 BB4D     		ldr	r5, .L44+4
 311              		.loc 1 113 0
 312 00e2 FFF7FEFF 		bl	printIntro
 313              		.loc 1 114 0
 314 00e6 BB4C     		ldr	r4, .L44+8
 315 00e8 8022     		mov	r2, #128
 316 00ea 231C     		mov	r3, r4
 317 00ec 6D44     		add	r5, r5, sp
 318 00ee 1201     		lsl	r2, r2, #4
 319 00f0 B949     		ldr	r1, .L44+12
 320 00f2 0327     		mov	r7, #3
 321 00f4 0026     		mov	r6, #0
 322 00f6 B948     		ldr	r0, .L44+16
 323 00f8 0097     		str	r7, [sp]
 324 00fa 0196     		str	r6, [sp, #4]
 325 00fc 0295     		str	r5, [sp, #8]
 326 00fe FFF7FEFF 		bl	osCreateProcess
 327              		.loc 1 115 0
 328 0102 B748     		ldr	r0, .L44+20
 329 0104 FFF7FEFF 		bl	simplePrintf
 330              		.loc 1 116 0
 331 0108 B648     		ldr	r0, .L44+24
 332 010a 0121     		mov	r1, #1
 333 010c FFF7FEFF 		bl	messageOnLCD
 334              		.loc 1 117 0
 335 0110 2078     		ldrb	r0, [r4]
 336 0112 291C     		mov	r1, r5
 337 0114 FFF7FEFF 		bl	osStartProcess
 338              		.loc 1 118 0
 339 0118 FFF7FEFF 		bl	printPatternInfo
 340              		.loc 1 119 0
 341 011c B24C     		ldr	r4, .L44+28
 342 011e 8022     		mov	r2, #128
 343 0120 231C     		mov	r3, r4
 344 0122 1201     		lsl	r2, r2, #4
 345 0124 B149     		ldr	r1, .L44+32
 346 0126 B248     		ldr	r0, .L44+36
ARM GAS  /cygdrive/c/Users/embedded/AppData/Local/Temp/ccHdAOHQ.s 			page 14


 347 0128 0097     		str	r7, [sp]
 348 012a 0196     		str	r6, [sp, #4]
 349 012c 0295     		str	r5, [sp, #8]
 350 012e FFF7FEFF 		bl	osCreateProcess
 351              		.loc 1 120 0
 352 0132 B048     		ldr	r0, .L44+40
 353 0134 FFF7FEFF 		bl	simplePrintf
 354              		.loc 1 121 0
 355 0138 AF48     		ldr	r0, .L44+44
 356 013a 0121     		mov	r1, #1
 357 013c FFF7FEFF 		bl	messageOnLCD
 358              		.loc 1 122 0
 359 0140 2078     		ldrb	r0, [r4]
 360 0142 291C     		mov	r1, r5
 361 0144 FFF7FEFF 		bl	osStartProcess
 362              		.loc 1 123 0
 363 0148 0121     		mov	r1, #1
 364 014a AC48     		ldr	r0, .L44+48
 365 014c FFF7FEFF 		bl	messageOnLCD
 366              		.loc 1 124 0
 367 0150 AB48     		ldr	r0, .L44+52
 368 0152 FFF7FEFF 		bl	simplePrintf
 369              		.loc 1 125 0
 370 0156 0020     		mov	r0, #0
 371 0158 FFF7FEFF 		bl	soundManager
 372              		.loc 1 126 0
 373 015c A94C     		ldr	r4, .L44+56
 374 015e 8022     		mov	r2, #128
 375 0160 231C     		mov	r3, r4
 376 0162 1201     		lsl	r2, r2, #4
 377 0164 A849     		ldr	r1, .L44+60
 378 0166 A948     		ldr	r0, .L44+64
 379 0168 0097     		str	r7, [sp]
 380 016a 0196     		str	r6, [sp, #4]
 381 016c 0295     		str	r5, [sp, #8]
 382 016e FFF7FEFF 		bl	osCreateProcess
 383              		.loc 1 127 0
 384 0172 A748     		ldr	r0, .L44+68
 385 0174 FFF7FEFF 		bl	simplePrintf
 386              		.loc 1 128 0
 387 0178 2078     		ldrb	r0, [r4]
 388 017a 291C     		mov	r1, r5
 389 017c FFF7FEFF 		bl	osStartProcess
 390              		.loc 1 129 0
 391 0180 A448     		ldr	r0, .L44+72
 392 0182 0121     		mov	r1, #1
 393 0184 FFF7FEFF 		bl	messageOnLCD
 394              		.loc 1 130 0
 395 0188 FFF7FEFF 		bl	printInfo
 396              		.loc 1 131 0
 397 018c 4020     		mov	r0, #64
 398 018e FFF7FEFF 		bl	osSleep
 399 0192 0023     		mov	r3, #0
 400 0194 0593     		str	r3, [sp, #20]
 401              	.LVL8:
 402              	.LVL9:
 403              	.L27:
ARM GAS  /cygdrive/c/Users/embedded/AppData/Local/Temp/ccHdAOHQ.s 			page 15


 404              		.loc 1 144 0
 405 0196 A048     		ldr	r0, .L44+76
 406 0198 FFF7FEFF 		bl	simplePrintf
 407              		.loc 1 146 0
 408 019c 9F4E     		ldr	r6, .L44+80
 409              		.loc 1 147 0
 410 019e A04D     		ldr	r5, .L44+84
 411              	.LVL10:
 412              		.loc 1 146 0
 413 01a0 0623     		mov	r3, #6
 414 01a2 3360     		str	r3, [r6]
 415              		.loc 1 147 0
 416 01a4 281C     		mov	r0, r5
 417 01a6 0621     		mov	r1, #6
 418 01a8 FFF7FEFF 		bl	simplePrintf
 419              		.loc 1 148 0
 420 01ac FF22     		mov	r2, #255
 421 01ae 0021     		mov	r1, #0
 422 01b0 0020     		mov	r0, #0
 423 01b2 FFF7FEFF 		bl	testRGB
 424              		.loc 1 149 0
 425 01b6 9B48     		ldr	r0, .L44+88
 426 01b8 FFF7FEFF 		bl	simplePrintf
 427              		.loc 1 150 0
 428 01bc 0121     		mov	r1, #1
 429 01be 9A48     		ldr	r0, .L44+92
 430 01c0 FFF7FEFF 		bl	messageOnLCD
 431              		.loc 1 151 0
 432 01c4 9948     		ldr	r0, .L44+96
 433 01c6 FFF7FEFF 		bl	simplePrintf
 434              		.loc 1 152 0
 435 01ca FFF7FEFF 		bl	getSomeTime
 436 01ce 041C     		mov	r4, r0
 437              		.loc 1 153 0
 438 01d0 211C     		mov	r1, r4
 439              	.LVL11:
 440 01d2 9748     		ldr	r0, .L44+100
 441 01d4 FFF7FEFF 		bl	simplePrintf
 442              	.LVL12:
 443              		.loc 1 154 0
 444 01d8 201C     		mov	r0, r4
 445              	.LVL13:
 446 01da FFF7FEFF 		bl	srand
 447              	.LVL14:
 448              		.loc 1 155 0
 449 01de 9548     		ldr	r0, .L44+104
 450 01e0 FFF7FEFF 		bl	simplePrintf
 451              		.loc 1 156 0
 452 01e4 0423     		mov	r3, #4
 453 01e6 3360     		str	r3, [r6]
 454              		.loc 1 157 0
 455 01e8 0421     		mov	r1, #4
 456 01ea 281C     		mov	r0, r5
 457 01ec FFF7FEFF 		bl	simplePrintf
 458              		.loc 1 158 0
 459 01f0 2020     		mov	r0, #32
 460 01f2 FFF7FEFF 		bl	osSleep
ARM GAS  /cygdrive/c/Users/embedded/AppData/Local/Temp/ccHdAOHQ.s 			page 16


 461              		.loc 1 159 0
 462 01f6 9048     		ldr	r0, .L44+108
 463 01f8 0121     		mov	r1, #1
 464 01fa FFF7FEFF 		bl	messageOnLCD
 465 01fe 0023     		mov	r3, #0
 466 0200 0393     		str	r3, [sp, #12]
 467 0202 0493     		str	r3, [sp, #16]
 468              	.LVL15:
 469              	.L28:
 470              		.loc 1 162 0
 471 0204 FFF7FEFF 		bl	rand
 472 0208 8C4B     		ldr	r3, .L44+112
 473 020a 011C     		mov	r1, r0
 474 020c 1940     		and	r1, r1, r3
 475 020e 0029     		cmp	r1, #0
 476 0210 04DA     		bge	.L29
 477 0212 0423     		mov	r3, #4
 478 0214 0139     		sub	r1, r1, #1
 479 0216 5B42     		neg	r3, r3
 480 0218 1943     		orr	r1, r1, r3
 481 021a 0131     		add	r1, r1, #1
 482              	.L29:
 483 021c 7F4F     		ldr	r7, .L44+80
 484              		.loc 1 163 0
 485 021e 804E     		ldr	r6, .L44+84
 486              		.loc 1 162 0
 487 0220 3960     		str	r1, [r7]
 488              		.loc 1 163 0
 489 0222 301C     		mov	r0, r6
 490 0224 FFF7FEFF 		bl	simplePrintf
 491              		.loc 1 164 0
 492 0228 854C     		ldr	r4, .L44+116
 493 022a 0123     		mov	r3, #1
 494 022c 2370     		strb	r3, [r4]
 495              		.loc 1 166 0
 496 022e FFF7FEFF 		bl	getSomeTime
 497              		.loc 1 167 0
 498 0232 0023     		mov	r3, #0
 499              		.loc 1 166 0
 500 0234 051C     		mov	r5, r0
 501              		.loc 1 167 0
 502 0236 2370     		strb	r3, [r4]
 503              		.loc 1 169 0
 504 0238 8248     		ldr	r0, .L44+120
 505 023a 291C     		mov	r1, r5
 506 023c FFF7FEFF 		bl	simplePrintf
 507              		.loc 1 170 0
 508 0240 FFF7FEFF 		bl	getButton
 509 0244 3B68     		ldr	r3, [r7]
 510 0246 9842     		cmp	r0, r3
 511 0248 7CD1     		bne	.L30
 512              		.loc 1 172 0
 513 024a 7F4B     		ldr	r3, .L44+124
 514 024c 9D42     		cmp	r5, r3
 515 024e 6FDC     		bgt	.L41
 516              		.loc 1 168 0
 517 0250 049B     		ldr	r3, [sp, #16]
ARM GAS  /cygdrive/c/Users/embedded/AppData/Local/Temp/ccHdAOHQ.s 			page 17


 518 0252 5B19     		add	r3, r3, r5
 519 0254 0493     		str	r3, [sp, #16]
 520              		.loc 1 179 0
 521 0256 0423     		mov	r3, #4
 522 0258 3B60     		str	r3, [r7]
 523              		.loc 1 180 0
 524 025a 301C     		mov	r0, r6
 525 025c 0421     		mov	r1, #4
 526 025e FFF7FEFF 		bl	simplePrintf
 527              		.loc 1 181 0
 528 0262 7A48     		ldr	r0, .L44+128
 529 0264 2B1C     		mov	r3, r5
 530 0266 7A4A     		ldr	r2, .L44+132
 531 0268 2021     		mov	r1, #32
 532 026a 6844     		add	r0, r0, sp
 533 026c FFF7FEFF 		bl	snprintf
 534              		.loc 1 182 0
 535 0270 7648     		ldr	r0, .L44+128
 536 0272 0121     		mov	r1, #1
 537 0274 6844     		add	r0, r0, sp
 538 0276 FFF7FEFF 		bl	messageOnLCD
 539              		.loc 1 183 0
 540 027a 2020     		mov	r0, #32
 541 027c FFF7FEFF 		bl	osSleep
 542              		.loc 1 160 0
 543 0280 039B     		ldr	r3, [sp, #12]
 544 0282 0133     		add	r3, r3, #1
 545 0284 0393     		str	r3, [sp, #12]
 546 0286 0A2B     		cmp	r3, #10
 547 0288 BCD1     		bne	.L28
 548              		.loc 1 187 0
 549 028a 0523     		mov	r3, #5
 550 028c 3B60     		str	r3, [r7]
 551              		.loc 1 188 0
 552 028e 301C     		mov	r0, r6
 553 0290 0521     		mov	r1, #5
 554 0292 FFF7FEFF 		bl	simplePrintf
 555              		.loc 1 189 0
 556 0296 0022     		mov	r2, #0
 557 0298 FF21     		mov	r1, #255
 558 029a 0020     		mov	r0, #0
 559 029c FFF7FEFF 		bl	testRGB
 560              		.loc 1 190 0
 561 02a0 6C48     		ldr	r0, .L44+136
 562 02a2 FFF7FEFF 		bl	simplePrintf
 563              		.loc 1 191 0
 564 02a6 0498     		ldr	r0, [sp, #16]
 565 02a8 0A21     		mov	r1, #10
 566 02aa FFF7FEFF 		bl	__divsi3
 567              		.loc 1 192 0
 568 02ae 6A4D     		ldr	r5, .L44+140
 569              	.LVL16:
 570              		.loc 1 191 0
 571 02b0 041C     		mov	r4, r0
 572              		.loc 1 192 0
 573 02b2 0121     		mov	r1, #1
 574 02b4 281C     		mov	r0, r5
ARM GAS  /cygdrive/c/Users/embedded/AppData/Local/Temp/ccHdAOHQ.s 			page 18


 575 02b6 FFF7FEFF 		bl	messageOnLCD
 576              		.loc 1 193 0
 577 02ba 684A     		ldr	r2, .L44+144
 578 02bc 0223     		mov	r3, #2
 579 02be 1360     		str	r3, [r2]
 580              		.loc 1 194 0
 581 02c0 6748     		ldr	r0, .L44+148
 582 02c2 FFF7FEFF 		bl	simplePrintf
 583              		.loc 1 195 0
 584 02c6 9620     		mov	r0, #150
 585 02c8 4000     		lsl	r0, r0, #1
 586 02ca FFF7FEFF 		bl	osSleep
 587              		.loc 1 196 0
 588 02ce 5F48     		ldr	r0, .L44+128
 589 02d0 644A     		ldr	r2, .L44+152
 590 02d2 231C     		mov	r3, r4
 591              	.LVL17:
 592 02d4 6844     		add	r0, r0, sp
 593 02d6 2021     		mov	r1, #32
 594 02d8 FFF7FEFF 		bl	snprintf
 595              	.LVL18:
 596              		.loc 1 197 0
 597 02dc 5B48     		ldr	r0, .L44+128
 598 02de 0121     		mov	r1, #1
 599 02e0 6844     		add	r0, r0, sp
 600 02e2 FFF7FEFF 		bl	messageOnLCD
 601              		.loc 1 198 0
 602 02e6 4020     		mov	r0, #64
 603 02e8 FFF7FEFF 		bl	osSleep
 604              		.loc 1 199 0
 605 02ec 281C     		mov	r0, r5
 606 02ee 0121     		mov	r1, #1
 607 02f0 FFF7FEFF 		bl	messageOnLCD
 608              		.loc 1 200 0
 609 02f4 211C     		mov	r1, r4
 610              	.LVL19:
 611 02f6 5C48     		ldr	r0, .L44+156
 612 02f8 FFF7FEFF 		bl	simplePrintf
 613              	.LVL20:
 614              		.loc 1 201 0
 615 02fc 059B     		ldr	r3, [sp, #20]
 616 02fe 0133     		add	r3, r3, #1
 617 0300 1B06     		lsl	r3, r3, #24
 618 0302 1B0E     		lsr	r3, r3, #24
 619              		.loc 1 203 0
 620 0304 3968     		ldr	r1, [r7]
 621 0306 5948     		ldr	r0, .L44+160
 622              		.loc 1 201 0
 623 0308 0593     		str	r3, [sp, #20]
 624              		.loc 1 203 0
 625 030a FFF7FEFF 		bl	simplePrintf
 626              		.loc 1 204 0
 627 030e 0598     		ldr	r0, [sp, #20]
 628 0310 0A21     		mov	r1, #10
 629 0312 0138     		sub	r0, r0, #1
 630 0314 FFF7FEFF 		bl	__modsi3
 631 0318 6B46     		mov	r3, sp
ARM GAS  /cygdrive/c/Users/embedded/AppData/Local/Temp/ccHdAOHQ.s 			page 19


 632 031a C001     		lsl	r0, r0, #7
 633 031c 1B33     		add	r3, r3, #27
 634 031e 1B18     		add	r3, r3, r0
 635 0320 534A     		ldr	r2, .L44+164
 636 0322 181C     		mov	r0, r3
 637 0324 8021     		mov	r1, #128
 638 0326 059B     		ldr	r3, [sp, #20]
 639 0328 0094     		str	r4, [sp]
 640 032a FFF7FEFF 		bl	snprintf
 641 032e 29E0     		b	.L36
 642              	.LVL21:
 643              	.L41:
 644              		.loc 1 174 0
 645 0330 5048     		ldr	r0, .L44+168
 646 0332 0121     		mov	r1, #1
 647 0334 FFF7FEFF 		bl	messageOnLCD
 648              		.loc 1 175 0
 649 0338 4F48     		ldr	r0, .L44+172
 650 033a FFF7FEFF 		bl	simplePrintf
 651              		.loc 1 176 0
 652 033e 6420     		mov	r0, #100
 653 0340 FFF7FEFF 		bl	osSleep
 654              	.L30:
 655              		.loc 1 208 0
 656 0344 354C     		ldr	r4, .L44+80
 657 0346 0723     		mov	r3, #7
 658 0348 2360     		str	r3, [r4]
 659              		.loc 1 209 0
 660 034a 3548     		ldr	r0, .L44+84
 661 034c 0721     		mov	r1, #7
 662 034e FFF7FEFF 		bl	simplePrintf
 663              		.loc 1 210 0
 664 0352 0022     		mov	r2, #0
 665 0354 0021     		mov	r1, #0
 666 0356 FF20     		mov	r0, #255
 667 0358 FFF7FEFF 		bl	testRGB
 668              		.loc 1 211 0
 669 035c 4748     		ldr	r0, .L44+176
 670 035e FFF7FEFF 		bl	simplePrintf
 671              		.loc 1 212 0
 672 0362 0121     		mov	r1, #1
 673 0364 4648     		ldr	r0, .L44+180
 674 0366 FFF7FEFF 		bl	messageOnLCD
 675              		.loc 1 213 0
 676 036a 4648     		ldr	r0, .L44+184
 677 036c FFF7FEFF 		bl	simplePrintf
 678              		.loc 1 214 0
 679 0370 3A4A     		ldr	r2, .L44+144
 680 0372 0123     		mov	r3, #1
 681              		.loc 1 215 0
 682 0374 4448     		ldr	r0, .L44+188
 683              		.loc 1 214 0
 684 0376 1360     		str	r3, [r2]
 685              		.loc 1 215 0
 686 0378 2168     		ldr	r1, [r4]
 687 037a FFF7FEFF 		bl	simplePrintf
 688              		.loc 1 216 0
ARM GAS  /cygdrive/c/Users/embedded/AppData/Local/Temp/ccHdAOHQ.s 			page 20


 689 037e FA20     		mov	r0, #250
 690 0380 FFF7FEFF 		bl	osSleep
 691              	.L36:
 692              		.loc 1 218 0
 693 0384 3220     		mov	r0, #50
 694 0386 FFF7FEFF 		bl	osSleep
 695              		.loc 1 219 0
 696 038a 4048     		ldr	r0, .L44+192
 697 038c 0121     		mov	r1, #1
 698 038e FFF7FEFF 		bl	messageOnLCD
 699              		.loc 1 220 0
 700 0392 224B     		ldr	r3, .L44+80
 701 0394 3E48     		ldr	r0, .L44+196
 702 0396 1968     		ldr	r1, [r3]
 703 0398 FFF7FEFF 		bl	simplePrintf
 704              		.loc 1 221 0
 705 039c 6846     		mov	r0, sp
 706 039e 0599     		ldr	r1, [sp, #20]
 707 03a0 1B30     		add	r0, r0, #27
 708 03a2 FFF7FEFF 		bl	printScoreboard
 709              		.loc 1 222 0
 710 03a6 6420     		mov	r0, #100
 711 03a8 FFF7FEFF 		bl	osSleep
 712              		.loc 1 223 0
 713 03ac 3948     		ldr	r0, .L44+200
 714 03ae 0121     		mov	r1, #1
 715 03b0 FFF7FEFF 		bl	messageOnLCD
 716 03b4 02E0     		b	.L37
 717              	.L38:
 718              		.loc 1 225 0
 719 03b6 0120     		mov	r0, #1
 720 03b8 FFF7FEFF 		bl	osSleep
 721              	.L37:
 722              		.loc 1 224 0
 723 03bc FFF7FEFF 		bl	getAnyButton
 724 03c0 0028     		cmp	r0, #0
 725 03c2 F8D0     		beq	.L38
 726              		.loc 1 226 0
 727 03c4 4020     		mov	r0, #64
 728 03c6 FFF7FEFF 		bl	osSleep
 729 03ca E4E6     		b	.L27
 730              	.L45:
 731              		.align	2
 732              	.L44:
 733 03cc C4FAFFFF 		.word	-1340
 734 03d0 3B050000 		.word	1339
 735 03d4 96210000 		.word	pid2
 736 03d8 05100000 		.word	matrixProcStack
 737 03dc 00000000 		.word	matrixProc
 738 03e0 00000000 		.word	.LC10
 739 03e4 1C000000 		.word	.LC12
 740 03e8 97210000 		.word	pid3
 741 03ec 05080000 		.word	motorProcStack
 742 03f0 00000000 		.word	motorProc
 743 03f4 30000000 		.word	.LC17
 744 03f8 40000000 		.word	.LC19
 745 03fc 50000000 		.word	.LC21
ARM GAS  /cygdrive/c/Users/embedded/AppData/Local/Temp/ccHdAOHQ.s 			page 21


 746 0400 6C000000 		.word	.LC23
 747 0404 98210000 		.word	pid4
 748 0408 05180000 		.word	soundProcStack
 749 040c 00000000 		.word	soundProc
 750 0410 88000000 		.word	.LC28
 751 0414 AC000000 		.word	.LC30
 752 0418 CC000000 		.word	.LC32
 753 041c 00000000 		.word	ledPattern
 754 0420 E4000000 		.word	.LC35
 755 0424 08010000 		.word	.LC37
 756 0428 20010000 		.word	.LC39
 757 042c 44010000 		.word	.LC41
 758 0430 58010000 		.word	.LC43
 759 0434 64010000 		.word	.LC45
 760 0438 88010000 		.word	.LC47
 761 043c 03000080 		.word	-2147483645
 762 0440 00000000 		.word	motorplay
 763 0444 AC010000 		.word	.LC50
 764 0448 88130000 		.word	5000
 765 044c 1B050000 		.word	1307
 766 0450 F4010000 		.word	.LC56
 767 0454 08020000 		.word	.LC58
 768 0458 20020000 		.word	.LC60
 769 045c 00000000 		.word	soundNumber
 770 0460 44020000 		.word	.LC63
 771 0464 5C020000 		.word	.LC65
 772 0468 6C020000 		.word	.LC67
 773 046c 94020000 		.word	.LC69
 774 0470 AC020000 		.word	.LC71
 775 0474 B8010000 		.word	.LC52
 776 0478 D4010000 		.word	.LC54
 777 047c CC020000 		.word	.LC73
 778 0480 E4020000 		.word	.LC75
 779 0484 FC020000 		.word	.LC77
 780 0488 14030000 		.word	.LC79
 781 048c 2C030000 		.word	.LC81
 782 0490 4C030000 		.word	.LC83
 783 0494 64030000 		.word	.LC85
 784              	.LFE5:
 785              		.size	gameProc, .-gameProc
 786              		.align	2
 787              		.code 16
 788              		.thumb_func
 789              		.type	motorProc, %function
 790              	motorProc:
 791              	.LFB6:
 792              		.loc 1 233 0
 793 0498 00B5     		push	{lr}
 794              	.LCFI7:
 795              	.LVL22:
 796              	.L48:
 797              		.loc 1 236 0
 798 049a 054B     		ldr	r3, .L52
 799 049c 1B78     		ldrb	r3, [r3]
 800 049e 002B     		cmp	r3, #0
 801 04a0 01D0     		beq	.L49
 802              		.loc 1 237 0
ARM GAS  /cygdrive/c/Users/embedded/AppData/Local/Temp/ccHdAOHQ.s 			page 22


 803 04a2 FFF7FEFF 		bl	testMotor
 804              	.LVL23:
 805              	.L49:
 806              		.loc 1 238 0
 807 04a6 0220     		mov	r0, #2
 808              	.LVL24:
 809 04a8 FFF7FEFF 		bl	osSleep
 810 04ac F5E7     		b	.L48
 811              	.L53:
 812 04ae 0000     		.align	2
 813              	.L52:
 814 04b0 00000000 		.word	motorplay
 815              	.LFE6:
 816              		.size	motorProc, .-motorProc
 817              		.align	2
 818              		.code 16
 819              		.thumb_func
 820              		.type	matrixProc, %function
 821              	matrixProc:
 822              	.LFB7:
 823              		.loc 1 243 0
 824 04b4 00B5     		push	{lr}
 825              	.LCFI8:
 826              	.LVL25:
 827              		.loc 1 244 0
 828 04b6 0C49     		ldr	r1, .L57
 829 04b8 A823     		mov	r3, #168
 830 04ba 0A68     		ldr	r2, [r1]
 831 04bc 5B01     		lsl	r3, r3, #5
 832 04be 1A43     		orr	r2, r2, r3
 833              		.loc 1 245 0
 834 04c0 0A4B     		ldr	r3, .L57+4
 835              		.loc 1 244 0
 836 04c2 0A60     		str	r2, [r1]
 837              		.loc 1 245 0
 838 04c4 0822     		mov	r2, #8
 839 04c6 1A60     		str	r2, [r3]
 840              		.loc 1 246 0
 841 04c8 6022     		mov	r2, #96
 842 04ca 0C3B     		sub	r3, r3, #12
 843 04cc 1A60     		str	r2, [r3]
 844              		.loc 1 247 0
 845 04ce 0849     		ldr	r1, .L57+8
 846 04d0 8023     		mov	r3, #128
 847 04d2 0A68     		ldr	r2, [r1]
 848 04d4 1B02     		lsl	r3, r3, #8
 849 04d6 1A43     		orr	r2, r2, r3
 850 04d8 0A60     		str	r2, [r1]
 851              		.loc 1 248 0
 852 04da FFF7FEFF 		bl	startTimer1
 853              	.LVL26:
 854              	.L55:
 855              		.loc 1 251 0
 856 04de 054B     		ldr	r3, .L57+12
 857 04e0 1878     		ldrb	r0, [r3]
 858 04e2 FFF7FEFF 		bl	printMatrix
 859 04e6 FAE7     		b	.L55
ARM GAS  /cygdrive/c/Users/embedded/AppData/Local/Temp/ccHdAOHQ.s 			page 23


 860              	.L58:
 861              		.align	2
 862              	.L57:
 863 04e8 00C002E0 		.word	-536690688
 864 04ec 0C0002E0 		.word	-536739828
 865 04f0 088002E0 		.word	-536707064
 866 04f4 00000000 		.word	ledPattern
 867              	.LFE7:
 868              		.size	matrixProc, .-matrixProc
 869              		.global	soundNumber
 870              		.data
 871              		.align	2
 872              		.type	soundNumber, %object
 873              		.size	soundNumber, 4
 874              	soundNumber:
 875 0000 FFFFFFFF 		.word	-1
 876              		.global	ledPattern
 877              		.align	2
 878              		.type	ledPattern, %object
 879              		.size	ledPattern, 4
 880              	ledPattern:
 881 0004 04000000 		.word	4
 882              		.global	msClock
 883              		.bss
 884              		.align	2
 885              		.type	msClock, %object
 886              		.size	msClock, 4
 887              	msClock:
 888 0000 00000000 		.space	4
 889              		.global	motorplay
 890              		.type	motorplay, %object
 891              		.size	motorplay, 1
 892              	motorplay:
 893 0004 00       		.space	1
 894              	gameProcStack:
 895 0005 00000000 		.space	2048
 895      00000000 
 895      00000000 
 895      00000000 
 895      00000000 
 896              	motorProcStack:
 897 0805 00000000 		.space	2048
 897      00000000 
 897      00000000 
 897      00000000 
 897      00000000 
 898              	matrixProcStack:
 899 1005 00000000 		.space	2048
 899      00000000 
 899      00000000 
 899      00000000 
 899      00000000 
 900              	soundProcStack:
 901 1805 00000000 		.space	2048
 901      00000000 
 901      00000000 
 901      00000000 
ARM GAS  /cygdrive/c/Users/embedded/AppData/Local/Temp/ccHdAOHQ.s 			page 24


 901      00000000 
 902              	initStack:
 903 2005 00000000 		.space	400
 903      00000000 
 903      00000000 
 903      00000000 
 903      00000000 
 904              	pid1:
 905 2195 00       		.space	1
 906              	pid2:
 907 2196 00       		.space	1
 908              	pid3:
 909 2197 00       		.space	1
 910              	pid4:
 911 2198 00       		.space	1
 912 2199 000000   		.section	.debug_frame,"",%progbits
 913              	.Lframe0:
 914 0000 0C000000 		.4byte	.LECIE0-.LSCIE0
 915              	.LSCIE0:
 916 0004 FFFFFFFF 		.4byte	0xffffffff
 917 0008 01       		.byte	0x1
 918 0009 00       		.ascii	"\000"
 919 000a 01       		.uleb128 0x1
 920 000b 7C       		.sleb128 -4
 921 000c 0E       		.byte	0xe
 922 000d 0C       		.byte	0xc
 923 000e 0D       		.uleb128 0xd
 924 000f 00       		.uleb128 0x0
 925              		.align	2
 926              	.LECIE0:
 927              	.LSFDE0:
 928 0010 0C000000 		.4byte	.LEFDE0-.LASFDE0
 929              	.LASFDE0:
 930 0014 00000000 		.4byte	.Lframe0
 931 0018 00000000 		.4byte	.LFB4
 932 001c 10000000 		.4byte	.LFE4-.LFB4
 933              		.align	2
 934              	.LEFDE0:
 935              	.LSFDE2:
 936 0020 18000000 		.4byte	.LEFDE2-.LASFDE2
 937              	.LASFDE2:
 938 0024 00000000 		.4byte	.Lframe0
 939 0028 10000000 		.4byte	.LFB2
 940 002c 5C000000 		.4byte	.LFE2-.LFB2
 941 0030 42       		.byte	0x4
 942              		.4byte	.LCFI0-.LFB2
 943 0031 0E       		.byte	0xe
 944 0032 0C       		.uleb128 0xc
 945 0033 84       		.byte	0x84
 946 0034 03       		.uleb128 0x3
 947 0035 85       		.byte	0x85
 948 0036 02       		.uleb128 0x2
 949 0037 8E       		.byte	0x8e
 950 0038 01       		.uleb128 0x1
 951 0039 4E       		.byte	0x4
 952              		.4byte	.LCFI1-.LCFI0
 953 003a 0E       		.byte	0xe
ARM GAS  /cygdrive/c/Users/embedded/AppData/Local/Temp/ccHdAOHQ.s 			page 25


 954 003b 1C       		.uleb128 0x1c
 955              		.align	2
 956              	.LEFDE2:
 957              	.LSFDE4:
 958 003c 18000000 		.4byte	.LEFDE4-.LASFDE4
 959              	.LASFDE4:
 960 0040 00000000 		.4byte	.Lframe0
 961 0044 6C000000 		.4byte	.LFB3
 962 0048 48000000 		.4byte	.LFE3-.LFB3
 963 004c 42       		.byte	0x4
 964              		.4byte	.LCFI2-.LFB3
 965 004d 0E       		.byte	0xe
 966 004e 0C       		.uleb128 0xc
 967 004f 84       		.byte	0x84
 968 0050 03       		.uleb128 0x3
 969 0051 85       		.byte	0x85
 970 0052 02       		.uleb128 0x2
 971 0053 8E       		.byte	0x8e
 972 0054 01       		.uleb128 0x1
 973 0055 42       		.byte	0x4
 974              		.4byte	.LCFI3-.LCFI2
 975 0056 0E       		.byte	0xe
 976 0057 1C       		.uleb128 0x1c
 977              		.align	2
 978              	.LEFDE4:
 979              	.LSFDE6:
 980 0058 14000000 		.4byte	.LEFDE6-.LASFDE6
 981              	.LASFDE6:
 982 005c 00000000 		.4byte	.Lframe0
 983 0060 B4000000 		.4byte	.LFB8
 984 0064 1C000000 		.4byte	.LFE8-.LFB8
 985 0068 42       		.byte	0x4
 986              		.4byte	.LCFI4-.LFB8
 987 0069 0E       		.byte	0xe
 988 006a 08       		.uleb128 0x8
 989 006b 84       		.byte	0x84
 990 006c 02       		.uleb128 0x2
 991 006d 8E       		.byte	0x8e
 992 006e 01       		.uleb128 0x1
 993 006f 00       		.align	2
 994              	.LEFDE6:
 995              	.LSFDE8:
 996 0070 20000000 		.4byte	.LEFDE8-.LASFDE8
 997              	.LASFDE8:
 998 0074 00000000 		.4byte	.Lframe0
 999 0078 D0000000 		.4byte	.LFB5
 1000 007c C8030000 		.4byte	.LFE5-.LFB5
 1001 0080 42       		.byte	0x4
 1002              		.4byte	.LCFI5-.LFB5
 1003 0081 0E       		.byte	0xe
 1004 0082 14       		.uleb128 0x14
 1005 0083 84       		.byte	0x84
 1006 0084 05       		.uleb128 0x5
 1007 0085 85       		.byte	0x85
 1008 0086 04       		.uleb128 0x4
 1009 0087 86       		.byte	0x86
 1010 0088 03       		.uleb128 0x3
ARM GAS  /cygdrive/c/Users/embedded/AppData/Local/Temp/ccHdAOHQ.s 			page 26


 1011 0089 87       		.byte	0x87
 1012 008a 02       		.uleb128 0x2
 1013 008b 8E       		.byte	0x8e
 1014 008c 01       		.uleb128 0x1
 1015 008d 46       		.byte	0x4
 1016              		.4byte	.LCFI6-.LCFI5
 1017 008e 0E       		.byte	0xe
 1018 008f D00A     		.uleb128 0x550
 1019 0091 000000   		.align	2
 1020              	.LEFDE8:
 1021              	.LSFDE10:
 1022 0094 14000000 		.4byte	.LEFDE10-.LASFDE10
 1023              	.LASFDE10:
 1024 0098 00000000 		.4byte	.Lframe0
 1025 009c 98040000 		.4byte	.LFB6
 1026 00a0 1C000000 		.4byte	.LFE6-.LFB6
 1027 00a4 42       		.byte	0x4
 1028              		.4byte	.LCFI7-.LFB6
 1029 00a5 0E       		.byte	0xe
 1030 00a6 04       		.uleb128 0x4
 1031 00a7 8E       		.byte	0x8e
 1032 00a8 01       		.uleb128 0x1
 1033 00a9 000000   		.align	2
 1034              	.LEFDE10:
 1035              	.LSFDE12:
 1036 00ac 14000000 		.4byte	.LEFDE12-.LASFDE12
 1037              	.LASFDE12:
 1038 00b0 00000000 		.4byte	.Lframe0
 1039 00b4 B4040000 		.4byte	.LFB7
 1040 00b8 44000000 		.4byte	.LFE7-.LFB7
 1041 00bc 42       		.byte	0x4
 1042              		.4byte	.LCFI8-.LFB7
 1043 00bd 0E       		.byte	0xe
 1044 00be 04       		.uleb128 0x4
 1045 00bf 8E       		.byte	0x8e
 1046 00c0 01       		.uleb128 0x1
 1047 00c1 000000   		.align	2
 1048              	.LEFDE12:
 1049              		.file 2 "../pre_emptive_os/api/../api/general.h"
 1050              		.text
 1051              	.Letext0:
 1052              		.section	.debug_loc,"",%progbits
 1053              	.Ldebug_loc0:
 1054              	.LLST1:
 1055 0000 10000000 		.4byte	.LFB2-.Ltext0
 1056 0004 12000000 		.4byte	.LCFI0-.Ltext0
 1057 0008 0100     		.2byte	0x1
 1058 000a 5D       		.byte	0x5d
 1059 000b 12000000 		.4byte	.LCFI0-.Ltext0
 1060 000f 20000000 		.4byte	.LCFI1-.Ltext0
 1061 0013 0200     		.2byte	0x2
 1062 0015 7D       		.byte	0x7d
 1063 0016 0C       		.sleb128 12
 1064 0017 20000000 		.4byte	.LCFI1-.Ltext0
 1065 001b 6C000000 		.4byte	.LFE2-.Ltext0
 1066 001f 0200     		.2byte	0x2
 1067 0021 7D       		.byte	0x7d
ARM GAS  /cygdrive/c/Users/embedded/AppData/Local/Temp/ccHdAOHQ.s 			page 27


 1068 0022 1C       		.sleb128 28
 1069 0023 00000000 		.4byte	0x0
 1070 0027 00000000 		.4byte	0x0
 1071              	.LLST2:
 1072 002b 6C000000 		.4byte	.LFB3-.Ltext0
 1073 002f 6E000000 		.4byte	.LCFI2-.Ltext0
 1074 0033 0100     		.2byte	0x1
 1075 0035 5D       		.byte	0x5d
 1076 0036 6E000000 		.4byte	.LCFI2-.Ltext0
 1077 003a 70000000 		.4byte	.LCFI3-.Ltext0
 1078 003e 0200     		.2byte	0x2
 1079 0040 7D       		.byte	0x7d
 1080 0041 0C       		.sleb128 12
 1081 0042 70000000 		.4byte	.LCFI3-.Ltext0
 1082 0046 B4000000 		.4byte	.LFE3-.Ltext0
 1083 004a 0200     		.2byte	0x2
 1084 004c 7D       		.byte	0x7d
 1085 004d 1C       		.sleb128 28
 1086 004e 00000000 		.4byte	0x0
 1087 0052 00000000 		.4byte	0x0
 1088              	.LLST3:
 1089 0056 6E000000 		.4byte	.LVL2-.Ltext0
 1090 005a 74000000 		.4byte	.LVL3-.Ltext0
 1091 005e 0100     		.2byte	0x1
 1092 0060 50       		.byte	0x50
 1093 0061 00000000 		.4byte	0x0
 1094 0065 00000000 		.4byte	0x0
 1095              	.LLST4:
 1096 0069 B4000000 		.4byte	.LFB8-.Ltext0
 1097 006d B6000000 		.4byte	.LCFI4-.Ltext0
 1098 0071 0100     		.2byte	0x1
 1099 0073 5D       		.byte	0x5d
 1100 0074 B6000000 		.4byte	.LCFI4-.Ltext0
 1101 0078 D0000000 		.4byte	.LFE8-.Ltext0
 1102 007c 0200     		.2byte	0x2
 1103 007e 7D       		.byte	0x7d
 1104 007f 08       		.sleb128 8
 1105 0080 00000000 		.4byte	0x0
 1106 0084 00000000 		.4byte	0x0
 1107              	.LLST5:
 1108 0088 B6000000 		.4byte	.LVL4-.Ltext0
 1109 008c BA000000 		.4byte	.LVL5-.Ltext0
 1110 0090 0100     		.2byte	0x1
 1111 0092 50       		.byte	0x50
 1112 0093 00000000 		.4byte	0x0
 1113 0097 00000000 		.4byte	0x0
 1114              	.LLST6:
 1115 009b D0000000 		.4byte	.LFB5-.Ltext0
 1116 009f D2000000 		.4byte	.LCFI5-.Ltext0
 1117 00a3 0100     		.2byte	0x1
 1118 00a5 5D       		.byte	0x5d
 1119 00a6 D2000000 		.4byte	.LCFI5-.Ltext0
 1120 00aa D8000000 		.4byte	.LCFI6-.Ltext0
 1121 00ae 0200     		.2byte	0x2
 1122 00b0 7D       		.byte	0x7d
 1123 00b1 14       		.sleb128 20
 1124 00b2 D8000000 		.4byte	.LCFI6-.Ltext0
ARM GAS  /cygdrive/c/Users/embedded/AppData/Local/Temp/ccHdAOHQ.s 			page 28


 1125 00b6 98040000 		.4byte	.LFE5-.Ltext0
 1126 00ba 0300     		.2byte	0x3
 1127 00bc 7D       		.byte	0x7d
 1128 00bd D00A     		.sleb128 1360
 1129 00bf 00000000 		.4byte	0x0
 1130 00c3 00000000 		.4byte	0x0
 1131              	.LLST7:
 1132 00c7 D2000000 		.4byte	.LVL6-.Ltext0
 1133 00cb D6000000 		.4byte	.LVL7-.Ltext0
 1134 00cf 0100     		.2byte	0x1
 1135 00d1 50       		.byte	0x50
 1136 00d2 00000000 		.4byte	0x0
 1137 00d6 00000000 		.4byte	0x0
 1138              	.LLST8:
 1139 00da 96010000 		.4byte	.LVL9-.Ltext0
 1140 00de A0010000 		.4byte	.LVL10-.Ltext0
 1141 00e2 0100     		.2byte	0x1
 1142 00e4 55       		.byte	0x55
 1143 00e5 04020000 		.4byte	.LVL15-.Ltext0
 1144 00e9 B0020000 		.4byte	.LVL16-.Ltext0
 1145 00ed 0100     		.2byte	0x1
 1146 00ef 55       		.byte	0x55
 1147 00f0 30030000 		.4byte	.LVL21-.Ltext0
 1148 00f4 98040000 		.4byte	.LFE5-.Ltext0
 1149 00f8 0100     		.2byte	0x1
 1150 00fa 55       		.byte	0x55
 1151 00fb 00000000 		.4byte	0x0
 1152 00ff 00000000 		.4byte	0x0
 1153              	.LLST9:
 1154 0103 D4020000 		.4byte	.LVL17-.Ltext0
 1155 0107 DC020000 		.4byte	.LVL18-.Ltext0
 1156 010b 0100     		.2byte	0x1
 1157 010d 53       		.byte	0x53
 1158 010e F6020000 		.4byte	.LVL19-.Ltext0
 1159 0112 FC020000 		.4byte	.LVL20-.Ltext0
 1160 0116 0100     		.2byte	0x1
 1161 0118 51       		.byte	0x51
 1162 0119 00000000 		.4byte	0x0
 1163 011d 00000000 		.4byte	0x0
 1164              	.LLST10:
 1165 0121 D2010000 		.4byte	.LVL11-.Ltext0
 1166 0125 D8010000 		.4byte	.LVL12-.Ltext0
 1167 0129 0100     		.2byte	0x1
 1168 012b 51       		.byte	0x51
 1169 012c DA010000 		.4byte	.LVL13-.Ltext0
 1170 0130 DE010000 		.4byte	.LVL14-.Ltext0
 1171 0134 0100     		.2byte	0x1
 1172 0136 50       		.byte	0x50
 1173 0137 00000000 		.4byte	0x0
 1174 013b 00000000 		.4byte	0x0
 1175              	.LLST11:
 1176 013f 98040000 		.4byte	.LFB6-.Ltext0
 1177 0143 9A040000 		.4byte	.LCFI7-.Ltext0
 1178 0147 0100     		.2byte	0x1
 1179 0149 5D       		.byte	0x5d
 1180 014a 9A040000 		.4byte	.LCFI7-.Ltext0
 1181 014e B4040000 		.4byte	.LFE6-.Ltext0
ARM GAS  /cygdrive/c/Users/embedded/AppData/Local/Temp/ccHdAOHQ.s 			page 29


 1182 0152 0200     		.2byte	0x2
 1183 0154 7D       		.byte	0x7d
 1184 0155 04       		.sleb128 4
 1185 0156 00000000 		.4byte	0x0
 1186 015a 00000000 		.4byte	0x0
 1187              	.LLST12:
 1188 015e 9A040000 		.4byte	.LVL22-.Ltext0
 1189 0162 A6040000 		.4byte	.LVL23-.Ltext0
 1190 0166 0100     		.2byte	0x1
 1191 0168 50       		.byte	0x50
 1192 0169 A6040000 		.4byte	.LVL23-.Ltext0
 1193 016d A8040000 		.4byte	.LVL24-.Ltext0
 1194 0171 0100     		.2byte	0x1
 1195 0173 50       		.byte	0x50
 1196 0174 00000000 		.4byte	0x0
 1197 0178 00000000 		.4byte	0x0
 1198              	.LLST13:
 1199 017c B4040000 		.4byte	.LFB7-.Ltext0
 1200 0180 B6040000 		.4byte	.LCFI8-.Ltext0
 1201 0184 0100     		.2byte	0x1
 1202 0186 5D       		.byte	0x5d
 1203 0187 B6040000 		.4byte	.LCFI8-.Ltext0
 1204 018b F8040000 		.4byte	.LFE7-.Ltext0
 1205 018f 0200     		.2byte	0x2
 1206 0191 7D       		.byte	0x7d
 1207 0192 04       		.sleb128 4
 1208 0193 00000000 		.4byte	0x0
 1209 0197 00000000 		.4byte	0x0
 1210              	.LLST14:
 1211 019b B6040000 		.4byte	.LVL25-.Ltext0
 1212 019f DE040000 		.4byte	.LVL26-.Ltext0
 1213 01a3 0100     		.2byte	0x1
 1214 01a5 50       		.byte	0x50
 1215 01a6 00000000 		.4byte	0x0
 1216 01aa 00000000 		.4byte	0x0
 1217              		.section	.debug_info
 1218 0000 61030000 		.4byte	0x361
 1219 0004 0200     		.2byte	0x2
 1220 0006 00000000 		.4byte	.Ldebug_abbrev0
 1221 000a 04       		.byte	0x4
 1222 000b 01       		.uleb128 0x1
 1223 000c 00000000 		.4byte	.Ldebug_line0
 1224 0010 F8040000 		.4byte	.Letext0
 1225 0014 00000000 		.4byte	.Ltext0
 1226 0018 3C010000 		.4byte	.LASF38
 1227 001c 01       		.byte	0x1
 1228 001d B4010000 		.4byte	.LASF39
 1229 0021 EE000000 		.4byte	.LASF40
 1230 0025 02       		.uleb128 0x2
 1231 0026 74553800 		.ascii	"tU8\000"
 1232 002a 02       		.byte	0x2
 1233 002b 47       		.byte	0x47
 1234 002c 30000000 		.4byte	0x30
 1235 0030 03       		.uleb128 0x3
 1236 0031 72000000 		.4byte	.LASF0
 1237 0035 01       		.byte	0x1
 1238 0036 08       		.byte	0x8
ARM GAS  /cygdrive/c/Users/embedded/AppData/Local/Temp/ccHdAOHQ.s 			page 30


 1239 0037 03       		.uleb128 0x3
 1240 0038 A4000000 		.4byte	.LASF1
 1241 003c 02       		.byte	0x2
 1242 003d 07       		.byte	0x7
 1243 003e 04       		.uleb128 0x4
 1244 003f 48010000 		.4byte	.LASF2
 1245 0043 02       		.byte	0x2
 1246 0044 49       		.byte	0x49
 1247 0045 49000000 		.4byte	0x49
 1248 0049 03       		.uleb128 0x3
 1249 004a D5000000 		.4byte	.LASF3
 1250 004e 04       		.byte	0x4
 1251 004f 07       		.byte	0x7
 1252 0050 03       		.uleb128 0x3
 1253 0051 9E010000 		.4byte	.LASF4
 1254 0055 01       		.byte	0x1
 1255 0056 06       		.byte	0x6
 1256 0057 03       		.uleb128 0x3
 1257 0058 67010000 		.4byte	.LASF5
 1258 005c 02       		.byte	0x2
 1259 005d 05       		.byte	0x5
 1260 005e 05       		.uleb128 0x5
 1261 005f 696E7400 		.ascii	"int\000"
 1262 0063 04       		.byte	0x4
 1263 0064 05       		.byte	0x5
 1264 0065 03       		.uleb128 0x3
 1265 0066 8A000000 		.4byte	.LASF6
 1266 006a 04       		.byte	0x4
 1267 006b 07       		.byte	0x7
 1268 006c 06       		.uleb128 0x6
 1269 006d 04       		.byte	0x4
 1270 006e 07       		.uleb128 0x7
 1271 006f 93000000 		.4byte	0x93
 1272 0073 01       		.byte	0x1
 1273 0074 5A010000 		.4byte	.LASF7
 1274 0078 01       		.byte	0x1
 1275 0079 69       		.byte	0x69
 1276 007a 01       		.byte	0x1
 1277 007b 00000000 		.4byte	.LFB4
 1278 007f 10000000 		.4byte	.LFE4
 1279 0083 01       		.byte	0x1
 1280 0084 5D       		.byte	0x5d
 1281 0085 08       		.uleb128 0x8
 1282 0086 E2000000 		.4byte	.LASF10
 1283 008a 01       		.byte	0x1
 1284 008b 68       		.byte	0x68
 1285 008c 3E000000 		.4byte	0x3e
 1286 0090 01       		.byte	0x1
 1287 0091 50       		.byte	0x50
 1288 0092 00       		.byte	0x0
 1289 0093 09       		.uleb128 0x9
 1290 0094 CD000000 		.4byte	0xcd
 1291 0098 01       		.byte	0x1
 1292 0099 CB000000 		.4byte	.LASF8
 1293 009d 01       		.byte	0x1
 1294 009e 4D       		.byte	0x4d
 1295 009f 01       		.byte	0x1
ARM GAS  /cygdrive/c/Users/embedded/AppData/Local/Temp/ccHdAOHQ.s 			page 31


 1296 00a0 5E000000 		.4byte	0x5e
 1297 00a4 10000000 		.4byte	.LFB2
 1298 00a8 6C000000 		.4byte	.LFE2
 1299 00ac 00000000 		.4byte	.LLST1
 1300 00b0 0A       		.uleb128 0xa
 1301 00b1 71010000 		.4byte	.LASF9
 1302 00b5 01       		.byte	0x1
 1303 00b6 4E       		.byte	0x4e
 1304 00b7 25000000 		.4byte	0x25
 1305 00bb 02       		.byte	0x2
 1306 00bc 91       		.byte	0x91
 1307 00bd 73       		.sleb128 -13
 1308 00be 0B       		.uleb128 0xb
 1309 00bf 70696400 		.ascii	"pid\000"
 1310 00c3 01       		.byte	0x1
 1311 00c4 4F       		.byte	0x4f
 1312 00c5 25000000 		.4byte	0x25
 1313 00c9 02       		.byte	0x2
 1314 00ca 75       		.byte	0x75
 1315 00cb 00       		.sleb128 0
 1316 00cc 00       		.byte	0x0
 1317 00cd 0C       		.uleb128 0xc
 1318 00ce 03010000 		.4byte	0x103
 1319 00d2 33010000 		.4byte	.LASF11
 1320 00d6 01       		.byte	0x1
 1321 00d7 5E       		.byte	0x5e
 1322 00d8 01       		.byte	0x1
 1323 00d9 6C000000 		.4byte	.LFB3
 1324 00dd B4000000 		.4byte	.LFE3
 1325 00e1 2B000000 		.4byte	.LLST2
 1326 00e5 0D       		.uleb128 0xd
 1327 00e6 61726700 		.ascii	"arg\000"
 1328 00ea 01       		.byte	0x1
 1329 00eb 5D       		.byte	0x5d
 1330 00ec 6C000000 		.4byte	0x6c
 1331 00f0 56000000 		.4byte	.LLST3
 1332 00f4 0A       		.uleb128 0xa
 1333 00f5 71010000 		.4byte	.LASF9
 1334 00f9 01       		.byte	0x1
 1335 00fa 5F       		.byte	0x5f
 1336 00fb 25000000 		.4byte	0x25
 1337 00ff 02       		.byte	0x2
 1338 0100 91       		.byte	0x91
 1339 0101 73       		.sleb128 -13
 1340 0102 00       		.byte	0x0
 1341 0103 0E       		.uleb128 0xe
 1342 0104 2C010000 		.4byte	0x12c
 1343 0108 C1000000 		.4byte	.LASF12
 1344 010c 01       		.byte	0x1
 1345 010d 0001     		.2byte	0x100
 1346 010f 01       		.byte	0x1
 1347 0110 B4000000 		.4byte	.LFB8
 1348 0114 D0000000 		.4byte	.LFE8
 1349 0118 69000000 		.4byte	.LLST4
 1350 011c 0D       		.uleb128 0xd
 1351 011d 61726700 		.ascii	"arg\000"
 1352 0121 01       		.byte	0x1
ARM GAS  /cygdrive/c/Users/embedded/AppData/Local/Temp/ccHdAOHQ.s 			page 32


 1353 0122 FF       		.byte	0xff
 1354 0123 6C000000 		.4byte	0x6c
 1355 0127 88000000 		.4byte	.LLST5
 1356 012b 00       		.byte	0x0
 1357 012c 0C       		.uleb128 0xc
 1358 012d DF010000 		.4byte	0x1df
 1359 0131 08000000 		.4byte	.LASF13
 1360 0135 01       		.byte	0x1
 1361 0136 6E       		.byte	0x6e
 1362 0137 01       		.byte	0x1
 1363 0138 D0000000 		.4byte	.LFB5
 1364 013c 98040000 		.4byte	.LFE5
 1365 0140 9B000000 		.4byte	.LLST6
 1366 0144 0D       		.uleb128 0xd
 1367 0145 61726700 		.ascii	"arg\000"
 1368 0149 01       		.byte	0x1
 1369 014a 6D       		.byte	0x6d
 1370 014b 6C000000 		.4byte	0x6c
 1371 014f C7000000 		.4byte	.LLST7
 1372 0153 0A       		.uleb128 0xa
 1373 0154 71010000 		.4byte	.LASF9
 1374 0158 01       		.byte	0x1
 1375 0159 70       		.byte	0x70
 1376 015a 25000000 		.4byte	0x25
 1377 015e 02       		.byte	0x2
 1378 015f 91       		.byte	0x91
 1379 0160 6B       		.sleb128 -21
 1380 0161 0B       		.uleb128 0xb
 1381 0162 6A00     		.ascii	"j\000"
 1382 0164 01       		.byte	0x1
 1383 0165 86       		.byte	0x86
 1384 0166 5E000000 		.4byte	0x5e
 1385 016a 02       		.byte	0x2
 1386 016b 91       		.byte	0x91
 1387 016c 0C       		.sleb128 12
 1388 016d 0F       		.uleb128 0xf
 1389 016e 32000000 		.4byte	.LASF14
 1390 0172 01       		.byte	0x1
 1391 0173 87       		.byte	0x87
 1392 0174 5E000000 		.4byte	0x5e
 1393 0178 DA000000 		.4byte	.LLST8
 1394 017c 0F       		.uleb128 0xf
 1395 017d 52010000 		.4byte	.LASF15
 1396 0181 01       		.byte	0x1
 1397 0182 87       		.byte	0x87
 1398 0183 5E000000 		.4byte	0x5e
 1399 0187 03010000 		.4byte	.LLST9
 1400 018b 0A       		.uleb128 0xa
 1401 018c 9C000000 		.4byte	.LASF16
 1402 0190 01       		.byte	0x1
 1403 0191 88       		.byte	0x88
 1404 0192 5E000000 		.4byte	0x5e
 1405 0196 02       		.byte	0x2
 1406 0197 91       		.byte	0x91
 1407 0198 10       		.sleb128 16
 1408 0199 0F       		.uleb128 0xf
 1409 019a D0000000 		.4byte	.LASF17
ARM GAS  /cygdrive/c/Users/embedded/AppData/Local/Temp/ccHdAOHQ.s 			page 33


 1410 019e 01       		.byte	0x1
 1411 019f 89       		.byte	0x89
 1412 01a0 3E000000 		.4byte	0x3e
 1413 01a4 21010000 		.4byte	.LLST10
 1414 01a8 0A       		.uleb128 0xa
 1415 01a9 18000000 		.4byte	.LASF18
 1416 01ad 01       		.byte	0x1
 1417 01ae 8A       		.byte	0x8a
 1418 01af DF010000 		.4byte	0x1df
 1419 01b3 03       		.byte	0x3
 1420 01b4 91       		.byte	0x91
 1421 01b5 CB75     		.sleb128 -1333
 1422 01b7 0A       		.uleb128 0xa
 1423 01b8 BB010000 		.4byte	.LASF19
 1424 01bc 01       		.byte	0x1
 1425 01bd 8B       		.byte	0x8b
 1426 01be 25000000 		.4byte	0x25
 1427 01c2 02       		.byte	0x2
 1428 01c3 91       		.byte	0x91
 1429 01c4 14       		.sleb128 20
 1430 01c5 10       		.uleb128 0x10
 1431 01c6 2E010000 		.4byte	.LASF20
 1432 01ca 01       		.byte	0x1
 1433 01cb 8C       		.byte	0x8c
 1434 01cc 5E000000 		.4byte	0x5e
 1435 01d0 0A       		.uleb128 0xa
 1436 01d1 11000000 		.4byte	.LASF21
 1437 01d5 01       		.byte	0x1
 1438 01d6 8D       		.byte	0x8d
 1439 01d7 FC010000 		.4byte	0x1fc
 1440 01db 02       		.byte	0x2
 1441 01dc 91       		.byte	0x91
 1442 01dd 4B       		.sleb128 -53
 1443 01de 00       		.byte	0x0
 1444 01df 11       		.uleb128 0x11
 1445 01e0 F5010000 		.4byte	0x1f5
 1446 01e4 F5010000 		.4byte	0x1f5
 1447 01e8 12       		.uleb128 0x12
 1448 01e9 65000000 		.4byte	0x65
 1449 01ed 09       		.byte	0x9
 1450 01ee 12       		.uleb128 0x12
 1451 01ef 65000000 		.4byte	0x65
 1452 01f3 7F       		.byte	0x7f
 1453 01f4 00       		.byte	0x0
 1454 01f5 03       		.uleb128 0x3
 1455 01f6 4D010000 		.4byte	.LASF22
 1456 01fa 01       		.byte	0x1
 1457 01fb 08       		.byte	0x8
 1458 01fc 11       		.uleb128 0x11
 1459 01fd 0C020000 		.4byte	0x20c
 1460 0201 F5010000 		.4byte	0x1f5
 1461 0205 12       		.uleb128 0x12
 1462 0206 65000000 		.4byte	0x65
 1463 020a 1F       		.byte	0x1f
 1464 020b 00       		.byte	0x0
 1465 020c 0C       		.uleb128 0xc
 1466 020d 34020000 		.4byte	0x234
ARM GAS  /cygdrive/c/Users/embedded/AppData/Local/Temp/ccHdAOHQ.s 			page 34


 1467 0211 B7000000 		.4byte	.LASF23
 1468 0215 01       		.byte	0x1
 1469 0216 E9       		.byte	0xe9
 1470 0217 01       		.byte	0x1
 1471 0218 98040000 		.4byte	.LFB6
 1472 021c B4040000 		.4byte	.LFE6
 1473 0220 3F010000 		.4byte	.LLST11
 1474 0224 0D       		.uleb128 0xd
 1475 0225 61726700 		.ascii	"arg\000"
 1476 0229 01       		.byte	0x1
 1477 022a E8       		.byte	0xe8
 1478 022b 6C000000 		.4byte	0x6c
 1479 022f 5E010000 		.4byte	.LLST12
 1480 0233 00       		.byte	0x0
 1481 0234 0C       		.uleb128 0xc
 1482 0235 5C020000 		.4byte	0x25c
 1483 0239 67000000 		.4byte	.LASF24
 1484 023d 01       		.byte	0x1
 1485 023e F3       		.byte	0xf3
 1486 023f 01       		.byte	0x1
 1487 0240 B4040000 		.4byte	.LFB7
 1488 0244 F8040000 		.4byte	.LFE7
 1489 0248 7C010000 		.4byte	.LLST13
 1490 024c 0D       		.uleb128 0xd
 1491 024d 61726700 		.ascii	"arg\000"
 1492 0251 01       		.byte	0x1
 1493 0252 F2       		.byte	0xf2
 1494 0253 6C000000 		.4byte	0x6c
 1495 0257 9B010000 		.4byte	.LLST14
 1496 025b 00       		.byte	0x0
 1497 025c 11       		.uleb128 0x11
 1498 025d 6D020000 		.4byte	0x26d
 1499 0261 25000000 		.4byte	0x25
 1500 0265 13       		.uleb128 0x13
 1501 0266 65000000 		.4byte	0x65
 1502 026a FF07     		.2byte	0x7ff
 1503 026c 00       		.byte	0x0
 1504 026d 0A       		.uleb128 0xa
 1505 026e 3B000000 		.4byte	.LASF25
 1506 0272 01       		.byte	0x1
 1507 0273 22       		.byte	0x22
 1508 0274 5C020000 		.4byte	0x25c
 1509 0278 05       		.byte	0x5
 1510 0279 03       		.byte	0x3
 1511 027a 05000000 		.4byte	gameProcStack
 1512 027e 0A       		.uleb128 0xa
 1513 027f 53000000 		.4byte	.LASF26
 1514 0283 01       		.byte	0x1
 1515 0284 23       		.byte	0x23
 1516 0285 5C020000 		.4byte	0x25c
 1517 0289 05       		.byte	0x5
 1518 028a 03       		.byte	0x3
 1519 028b 05080000 		.4byte	motorProcStack
 1520 028f 0A       		.uleb128 0xa
 1521 0290 8E010000 		.4byte	.LASF27
 1522 0294 01       		.byte	0x1
 1523 0295 24       		.byte	0x24
ARM GAS  /cygdrive/c/Users/embedded/AppData/Local/Temp/ccHdAOHQ.s 			page 35


 1524 0296 5C020000 		.4byte	0x25c
 1525 029a 05       		.byte	0x5
 1526 029b 03       		.byte	0x3
 1527 029c 05100000 		.4byte	matrixProcStack
 1528 02a0 0A       		.uleb128 0xa
 1529 02a1 23000000 		.4byte	.LASF28
 1530 02a5 01       		.byte	0x1
 1531 02a6 25       		.byte	0x25
 1532 02a7 5C020000 		.4byte	0x25c
 1533 02ab 05       		.byte	0x5
 1534 02ac 03       		.byte	0x3
 1535 02ad 05180000 		.4byte	soundProcStack
 1536 02b1 11       		.uleb128 0x11
 1537 02b2 C2020000 		.4byte	0x2c2
 1538 02b6 25000000 		.4byte	0x25
 1539 02ba 13       		.uleb128 0x13
 1540 02bb 65000000 		.4byte	0x65
 1541 02bf 8F01     		.2byte	0x18f
 1542 02c1 00       		.byte	0x0
 1543 02c2 0A       		.uleb128 0xa
 1544 02c3 49000000 		.4byte	.LASF29
 1545 02c7 01       		.byte	0x1
 1546 02c8 26       		.byte	0x26
 1547 02c9 B1020000 		.4byte	0x2b1
 1548 02cd 05       		.byte	0x5
 1549 02ce 03       		.byte	0x3
 1550 02cf 05200000 		.4byte	initStack
 1551 02d3 0A       		.uleb128 0xa
 1552 02d4 62000000 		.4byte	.LASF30
 1553 02d8 01       		.byte	0x1
 1554 02d9 29       		.byte	0x29
 1555 02da 25000000 		.4byte	0x25
 1556 02de 05       		.byte	0x5
 1557 02df 03       		.byte	0x3
 1558 02e0 95210000 		.4byte	pid1
 1559 02e4 0A       		.uleb128 0xa
 1560 02e5 62010000 		.4byte	.LASF31
 1561 02e9 01       		.byte	0x1
 1562 02ea 2A       		.byte	0x2a
 1563 02eb 25000000 		.4byte	0x25
 1564 02ef 05       		.byte	0x5
 1565 02f0 03       		.byte	0x3
 1566 02f1 96210000 		.4byte	pid2
 1567 02f5 0A       		.uleb128 0xa
 1568 02f6 80000000 		.4byte	.LASF32
 1569 02fa 01       		.byte	0x1
 1570 02fb 2B       		.byte	0x2b
 1571 02fc 25000000 		.4byte	0x25
 1572 0300 05       		.byte	0x5
 1573 0301 03       		.byte	0x3
 1574 0302 97210000 		.4byte	pid3
 1575 0306 0A       		.uleb128 0xa
 1576 0307 85000000 		.4byte	.LASF33
 1577 030b 01       		.byte	0x1
 1578 030c 2C       		.byte	0x2c
 1579 030d 25000000 		.4byte	0x25
 1580 0311 05       		.byte	0x5
ARM GAS  /cygdrive/c/Users/embedded/AppData/Local/Temp/ccHdAOHQ.s 			page 36


 1581 0312 03       		.byte	0x3
 1582 0313 98210000 		.4byte	pid4
 1583 0317 14       		.uleb128 0x14
 1584 0318 77010000 		.4byte	.LASF34
 1585 031c 01       		.byte	0x1
 1586 031d 47       		.byte	0x47
 1587 031e 5E000000 		.4byte	0x5e
 1588 0322 01       		.byte	0x1
 1589 0323 05       		.byte	0x5
 1590 0324 03       		.byte	0x3
 1591 0325 00000000 		.4byte	soundNumber
 1592 0329 14       		.uleb128 0x14
 1593 032a 83010000 		.4byte	.LASF35
 1594 032e 01       		.byte	0x1
 1595 032f 48       		.byte	0x48
 1596 0330 5E000000 		.4byte	0x5e
 1597 0334 01       		.byte	0x1
 1598 0335 05       		.byte	0x5
 1599 0336 03       		.byte	0x3
 1600 0337 00000000 		.4byte	ledPattern
 1601 033b 14       		.uleb128 0x14
 1602 033c 00000000 		.4byte	.LASF36
 1603 0340 01       		.byte	0x1
 1604 0341 49       		.byte	0x49
 1605 0342 4D030000 		.4byte	0x34d
 1606 0346 01       		.byte	0x1
 1607 0347 05       		.byte	0x5
 1608 0348 03       		.byte	0x3
 1609 0349 00000000 		.4byte	msClock
 1610 034d 15       		.uleb128 0x15
 1611 034e 3E000000 		.4byte	0x3e
 1612 0352 14       		.uleb128 0x14
 1613 0353 AA010000 		.4byte	.LASF37
 1614 0357 01       		.byte	0x1
 1615 0358 4A       		.byte	0x4a
 1616 0359 25000000 		.4byte	0x25
 1617 035d 01       		.byte	0x1
 1618 035e 05       		.byte	0x5
 1619 035f 03       		.byte	0x3
 1620 0360 00000000 		.4byte	motorplay
 1621 0364 00       		.byte	0x0
 1622              		.section	.debug_abbrev
 1623 0000 01       		.uleb128 0x1
 1624 0001 11       		.uleb128 0x11
 1625 0002 01       		.byte	0x1
 1626 0003 10       		.uleb128 0x10
 1627 0004 06       		.uleb128 0x6
 1628 0005 12       		.uleb128 0x12
 1629 0006 01       		.uleb128 0x1
 1630 0007 11       		.uleb128 0x11
 1631 0008 01       		.uleb128 0x1
 1632 0009 25       		.uleb128 0x25
 1633 000a 0E       		.uleb128 0xe
 1634 000b 13       		.uleb128 0x13
 1635 000c 0B       		.uleb128 0xb
 1636 000d 03       		.uleb128 0x3
 1637 000e 0E       		.uleb128 0xe
ARM GAS  /cygdrive/c/Users/embedded/AppData/Local/Temp/ccHdAOHQ.s 			page 37


 1638 000f 1B       		.uleb128 0x1b
 1639 0010 0E       		.uleb128 0xe
 1640 0011 00       		.byte	0x0
 1641 0012 00       		.byte	0x0
 1642 0013 02       		.uleb128 0x2
 1643 0014 16       		.uleb128 0x16
 1644 0015 00       		.byte	0x0
 1645 0016 03       		.uleb128 0x3
 1646 0017 08       		.uleb128 0x8
 1647 0018 3A       		.uleb128 0x3a
 1648 0019 0B       		.uleb128 0xb
 1649 001a 3B       		.uleb128 0x3b
 1650 001b 0B       		.uleb128 0xb
 1651 001c 49       		.uleb128 0x49
 1652 001d 13       		.uleb128 0x13
 1653 001e 00       		.byte	0x0
 1654 001f 00       		.byte	0x0
 1655 0020 03       		.uleb128 0x3
 1656 0021 24       		.uleb128 0x24
 1657 0022 00       		.byte	0x0
 1658 0023 03       		.uleb128 0x3
 1659 0024 0E       		.uleb128 0xe
 1660 0025 0B       		.uleb128 0xb
 1661 0026 0B       		.uleb128 0xb
 1662 0027 3E       		.uleb128 0x3e
 1663 0028 0B       		.uleb128 0xb
 1664 0029 00       		.byte	0x0
 1665 002a 00       		.byte	0x0
 1666 002b 04       		.uleb128 0x4
 1667 002c 16       		.uleb128 0x16
 1668 002d 00       		.byte	0x0
 1669 002e 03       		.uleb128 0x3
 1670 002f 0E       		.uleb128 0xe
 1671 0030 3A       		.uleb128 0x3a
 1672 0031 0B       		.uleb128 0xb
 1673 0032 3B       		.uleb128 0x3b
 1674 0033 0B       		.uleb128 0xb
 1675 0034 49       		.uleb128 0x49
 1676 0035 13       		.uleb128 0x13
 1677 0036 00       		.byte	0x0
 1678 0037 00       		.byte	0x0
 1679 0038 05       		.uleb128 0x5
 1680 0039 24       		.uleb128 0x24
 1681 003a 00       		.byte	0x0
 1682 003b 03       		.uleb128 0x3
 1683 003c 08       		.uleb128 0x8
 1684 003d 0B       		.uleb128 0xb
 1685 003e 0B       		.uleb128 0xb
 1686 003f 3E       		.uleb128 0x3e
 1687 0040 0B       		.uleb128 0xb
 1688 0041 00       		.byte	0x0
 1689 0042 00       		.byte	0x0
 1690 0043 06       		.uleb128 0x6
 1691 0044 0F       		.uleb128 0xf
 1692 0045 00       		.byte	0x0
 1693 0046 0B       		.uleb128 0xb
 1694 0047 0B       		.uleb128 0xb
ARM GAS  /cygdrive/c/Users/embedded/AppData/Local/Temp/ccHdAOHQ.s 			page 38


 1695 0048 00       		.byte	0x0
 1696 0049 00       		.byte	0x0
 1697 004a 07       		.uleb128 0x7
 1698 004b 2E       		.uleb128 0x2e
 1699 004c 01       		.byte	0x1
 1700 004d 01       		.uleb128 0x1
 1701 004e 13       		.uleb128 0x13
 1702 004f 3F       		.uleb128 0x3f
 1703 0050 0C       		.uleb128 0xc
 1704 0051 03       		.uleb128 0x3
 1705 0052 0E       		.uleb128 0xe
 1706 0053 3A       		.uleb128 0x3a
 1707 0054 0B       		.uleb128 0xb
 1708 0055 3B       		.uleb128 0x3b
 1709 0056 0B       		.uleb128 0xb
 1710 0057 27       		.uleb128 0x27
 1711 0058 0C       		.uleb128 0xc
 1712 0059 11       		.uleb128 0x11
 1713 005a 01       		.uleb128 0x1
 1714 005b 12       		.uleb128 0x12
 1715 005c 01       		.uleb128 0x1
 1716 005d 40       		.uleb128 0x40
 1717 005e 0A       		.uleb128 0xa
 1718 005f 00       		.byte	0x0
 1719 0060 00       		.byte	0x0
 1720 0061 08       		.uleb128 0x8
 1721 0062 05       		.uleb128 0x5
 1722 0063 00       		.byte	0x0
 1723 0064 03       		.uleb128 0x3
 1724 0065 0E       		.uleb128 0xe
 1725 0066 3A       		.uleb128 0x3a
 1726 0067 0B       		.uleb128 0xb
 1727 0068 3B       		.uleb128 0x3b
 1728 0069 0B       		.uleb128 0xb
 1729 006a 49       		.uleb128 0x49
 1730 006b 13       		.uleb128 0x13
 1731 006c 02       		.uleb128 0x2
 1732 006d 0A       		.uleb128 0xa
 1733 006e 00       		.byte	0x0
 1734 006f 00       		.byte	0x0
 1735 0070 09       		.uleb128 0x9
 1736 0071 2E       		.uleb128 0x2e
 1737 0072 01       		.byte	0x1
 1738 0073 01       		.uleb128 0x1
 1739 0074 13       		.uleb128 0x13
 1740 0075 3F       		.uleb128 0x3f
 1741 0076 0C       		.uleb128 0xc
 1742 0077 03       		.uleb128 0x3
 1743 0078 0E       		.uleb128 0xe
 1744 0079 3A       		.uleb128 0x3a
 1745 007a 0B       		.uleb128 0xb
 1746 007b 3B       		.uleb128 0x3b
 1747 007c 0B       		.uleb128 0xb
 1748 007d 27       		.uleb128 0x27
 1749 007e 0C       		.uleb128 0xc
 1750 007f 49       		.uleb128 0x49
 1751 0080 13       		.uleb128 0x13
ARM GAS  /cygdrive/c/Users/embedded/AppData/Local/Temp/ccHdAOHQ.s 			page 39


 1752 0081 11       		.uleb128 0x11
 1753 0082 01       		.uleb128 0x1
 1754 0083 12       		.uleb128 0x12
 1755 0084 01       		.uleb128 0x1
 1756 0085 40       		.uleb128 0x40
 1757 0086 06       		.uleb128 0x6
 1758 0087 00       		.byte	0x0
 1759 0088 00       		.byte	0x0
 1760 0089 0A       		.uleb128 0xa
 1761 008a 34       		.uleb128 0x34
 1762 008b 00       		.byte	0x0
 1763 008c 03       		.uleb128 0x3
 1764 008d 0E       		.uleb128 0xe
 1765 008e 3A       		.uleb128 0x3a
 1766 008f 0B       		.uleb128 0xb
 1767 0090 3B       		.uleb128 0x3b
 1768 0091 0B       		.uleb128 0xb
 1769 0092 49       		.uleb128 0x49
 1770 0093 13       		.uleb128 0x13
 1771 0094 02       		.uleb128 0x2
 1772 0095 0A       		.uleb128 0xa
 1773 0096 00       		.byte	0x0
 1774 0097 00       		.byte	0x0
 1775 0098 0B       		.uleb128 0xb
 1776 0099 34       		.uleb128 0x34
 1777 009a 00       		.byte	0x0
 1778 009b 03       		.uleb128 0x3
 1779 009c 08       		.uleb128 0x8
 1780 009d 3A       		.uleb128 0x3a
 1781 009e 0B       		.uleb128 0xb
 1782 009f 3B       		.uleb128 0x3b
 1783 00a0 0B       		.uleb128 0xb
 1784 00a1 49       		.uleb128 0x49
 1785 00a2 13       		.uleb128 0x13
 1786 00a3 02       		.uleb128 0x2
 1787 00a4 0A       		.uleb128 0xa
 1788 00a5 00       		.byte	0x0
 1789 00a6 00       		.byte	0x0
 1790 00a7 0C       		.uleb128 0xc
 1791 00a8 2E       		.uleb128 0x2e
 1792 00a9 01       		.byte	0x1
 1793 00aa 01       		.uleb128 0x1
 1794 00ab 13       		.uleb128 0x13
 1795 00ac 03       		.uleb128 0x3
 1796 00ad 0E       		.uleb128 0xe
 1797 00ae 3A       		.uleb128 0x3a
 1798 00af 0B       		.uleb128 0xb
 1799 00b0 3B       		.uleb128 0x3b
 1800 00b1 0B       		.uleb128 0xb
 1801 00b2 27       		.uleb128 0x27
 1802 00b3 0C       		.uleb128 0xc
 1803 00b4 11       		.uleb128 0x11
 1804 00b5 01       		.uleb128 0x1
 1805 00b6 12       		.uleb128 0x12
 1806 00b7 01       		.uleb128 0x1
 1807 00b8 40       		.uleb128 0x40
 1808 00b9 06       		.uleb128 0x6
ARM GAS  /cygdrive/c/Users/embedded/AppData/Local/Temp/ccHdAOHQ.s 			page 40


 1809 00ba 00       		.byte	0x0
 1810 00bb 00       		.byte	0x0
 1811 00bc 0D       		.uleb128 0xd
 1812 00bd 05       		.uleb128 0x5
 1813 00be 00       		.byte	0x0
 1814 00bf 03       		.uleb128 0x3
 1815 00c0 08       		.uleb128 0x8
 1816 00c1 3A       		.uleb128 0x3a
 1817 00c2 0B       		.uleb128 0xb
 1818 00c3 3B       		.uleb128 0x3b
 1819 00c4 0B       		.uleb128 0xb
 1820 00c5 49       		.uleb128 0x49
 1821 00c6 13       		.uleb128 0x13
 1822 00c7 02       		.uleb128 0x2
 1823 00c8 06       		.uleb128 0x6
 1824 00c9 00       		.byte	0x0
 1825 00ca 00       		.byte	0x0
 1826 00cb 0E       		.uleb128 0xe
 1827 00cc 2E       		.uleb128 0x2e
 1828 00cd 01       		.byte	0x1
 1829 00ce 01       		.uleb128 0x1
 1830 00cf 13       		.uleb128 0x13
 1831 00d0 03       		.uleb128 0x3
 1832 00d1 0E       		.uleb128 0xe
 1833 00d2 3A       		.uleb128 0x3a
 1834 00d3 0B       		.uleb128 0xb
 1835 00d4 3B       		.uleb128 0x3b
 1836 00d5 05       		.uleb128 0x5
 1837 00d6 27       		.uleb128 0x27
 1838 00d7 0C       		.uleb128 0xc
 1839 00d8 11       		.uleb128 0x11
 1840 00d9 01       		.uleb128 0x1
 1841 00da 12       		.uleb128 0x12
 1842 00db 01       		.uleb128 0x1
 1843 00dc 40       		.uleb128 0x40
 1844 00dd 06       		.uleb128 0x6
 1845 00de 00       		.byte	0x0
 1846 00df 00       		.byte	0x0
 1847 00e0 0F       		.uleb128 0xf
 1848 00e1 34       		.uleb128 0x34
 1849 00e2 00       		.byte	0x0
 1850 00e3 03       		.uleb128 0x3
 1851 00e4 0E       		.uleb128 0xe
 1852 00e5 3A       		.uleb128 0x3a
 1853 00e6 0B       		.uleb128 0xb
 1854 00e7 3B       		.uleb128 0x3b
 1855 00e8 0B       		.uleb128 0xb
 1856 00e9 49       		.uleb128 0x49
 1857 00ea 13       		.uleb128 0x13
 1858 00eb 02       		.uleb128 0x2
 1859 00ec 06       		.uleb128 0x6
 1860 00ed 00       		.byte	0x0
 1861 00ee 00       		.byte	0x0
 1862 00ef 10       		.uleb128 0x10
 1863 00f0 34       		.uleb128 0x34
 1864 00f1 00       		.byte	0x0
 1865 00f2 03       		.uleb128 0x3
ARM GAS  /cygdrive/c/Users/embedded/AppData/Local/Temp/ccHdAOHQ.s 			page 41


 1866 00f3 0E       		.uleb128 0xe
 1867 00f4 3A       		.uleb128 0x3a
 1868 00f5 0B       		.uleb128 0xb
 1869 00f6 3B       		.uleb128 0x3b
 1870 00f7 0B       		.uleb128 0xb
 1871 00f8 49       		.uleb128 0x49
 1872 00f9 13       		.uleb128 0x13
 1873 00fa 00       		.byte	0x0
 1874 00fb 00       		.byte	0x0
 1875 00fc 11       		.uleb128 0x11
 1876 00fd 01       		.uleb128 0x1
 1877 00fe 01       		.byte	0x1
 1878 00ff 01       		.uleb128 0x1
 1879 0100 13       		.uleb128 0x13
 1880 0101 49       		.uleb128 0x49
 1881 0102 13       		.uleb128 0x13
 1882 0103 00       		.byte	0x0
 1883 0104 00       		.byte	0x0
 1884 0105 12       		.uleb128 0x12
 1885 0106 21       		.uleb128 0x21
 1886 0107 00       		.byte	0x0
 1887 0108 49       		.uleb128 0x49
 1888 0109 13       		.uleb128 0x13
 1889 010a 2F       		.uleb128 0x2f
 1890 010b 0B       		.uleb128 0xb
 1891 010c 00       		.byte	0x0
 1892 010d 00       		.byte	0x0
 1893 010e 13       		.uleb128 0x13
 1894 010f 21       		.uleb128 0x21
 1895 0110 00       		.byte	0x0
 1896 0111 49       		.uleb128 0x49
 1897 0112 13       		.uleb128 0x13
 1898 0113 2F       		.uleb128 0x2f
 1899 0114 05       		.uleb128 0x5
 1900 0115 00       		.byte	0x0
 1901 0116 00       		.byte	0x0
 1902 0117 14       		.uleb128 0x14
 1903 0118 34       		.uleb128 0x34
 1904 0119 00       		.byte	0x0
 1905 011a 03       		.uleb128 0x3
 1906 011b 0E       		.uleb128 0xe
 1907 011c 3A       		.uleb128 0x3a
 1908 011d 0B       		.uleb128 0xb
 1909 011e 3B       		.uleb128 0x3b
 1910 011f 0B       		.uleb128 0xb
 1911 0120 49       		.uleb128 0x49
 1912 0121 13       		.uleb128 0x13
 1913 0122 3F       		.uleb128 0x3f
 1914 0123 0C       		.uleb128 0xc
 1915 0124 02       		.uleb128 0x2
 1916 0125 0A       		.uleb128 0xa
 1917 0126 00       		.byte	0x0
 1918 0127 00       		.byte	0x0
 1919 0128 15       		.uleb128 0x15
 1920 0129 35       		.uleb128 0x35
 1921 012a 00       		.byte	0x0
 1922 012b 49       		.uleb128 0x49
ARM GAS  /cygdrive/c/Users/embedded/AppData/Local/Temp/ccHdAOHQ.s 			page 42


 1923 012c 13       		.uleb128 0x13
 1924 012d 00       		.byte	0x0
 1925 012e 00       		.byte	0x0
 1926 012f 00       		.byte	0x0
 1927              		.section	.debug_pubnames,"",%progbits
 1928 0000 5C000000 		.4byte	0x5c
 1929 0004 0200     		.2byte	0x2
 1930 0006 00000000 		.4byte	.Ldebug_info0
 1931 000a 65030000 		.4byte	0x365
 1932 000e 6E000000 		.4byte	0x6e
 1933 0012 61707054 		.ascii	"appTick\000"
 1933      69636B00 
 1934 001a 93000000 		.4byte	0x93
 1935 001e 6D61696E 		.ascii	"main\000"
 1935      00
 1936 0023 17030000 		.4byte	0x317
 1937 0027 736F756E 		.ascii	"soundNumber\000"
 1937      644E756D 
 1937      62657200 
 1938 0033 29030000 		.4byte	0x329
 1939 0037 6C656450 		.ascii	"ledPattern\000"
 1939      61747465 
 1939      726E00
 1940 0042 3B030000 		.4byte	0x33b
 1941 0046 6D73436C 		.ascii	"msClock\000"
 1941      6F636B00 
 1942 004e 52030000 		.4byte	0x352
 1943 0052 6D6F746F 		.ascii	"motorplay\000"
 1943      72706C61 
 1943      7900
 1944 005c 00000000 		.4byte	0x0
 1945              		.section	.debug_aranges,"",%progbits
 1946 0000 1C000000 		.4byte	0x1c
 1947 0004 0200     		.2byte	0x2
 1948 0006 00000000 		.4byte	.Ldebug_info0
 1949 000a 04       		.byte	0x4
 1950 000b 00       		.byte	0x0
 1951 000c 0000     		.2byte	0x0
 1952 000e 0000     		.2byte	0x0
 1953 0010 00000000 		.4byte	.Ltext0
 1954 0014 F8040000 		.4byte	.Letext0-.Ltext0
 1955 0018 00000000 		.4byte	0x0
 1956 001c 00000000 		.4byte	0x0
 1957              		.section	.debug_str,"MS",%progbits,1
 1958              	.LASF36:
 1959 0000 6D73436C 		.ascii	"msClock\000"
 1959      6F636B00 
 1960              	.LASF13:
 1961 0008 67616D65 		.ascii	"gameProc\000"
 1961      50726F63 
 1961      00
 1962              	.LASF21:
 1963 0011 62756666 		.ascii	"buffer\000"
 1963      657200
 1964              	.LASF18:
 1965 0018 73636F72 		.ascii	"scoreBoard\000"
 1965      65426F61 
ARM GAS  /cygdrive/c/Users/embedded/AppData/Local/Temp/ccHdAOHQ.s 			page 43


 1965      726400
 1966              	.LASF28:
 1967 0023 736F756E 		.ascii	"soundProcStack\000"
 1967      6450726F 
 1967      63537461 
 1967      636B00
 1968              	.LASF14:
 1969 0032 74696D65 		.ascii	"timeInMs\000"
 1969      496E4D73 
 1969      00
 1970              	.LASF25:
 1971 003b 67616D65 		.ascii	"gameProcStack\000"
 1971      50726F63 
 1971      53746163 
 1971      6B00
 1972              	.LASF29:
 1973 0049 696E6974 		.ascii	"initStack\000"
 1973      53746163 
 1973      6B00
 1974              	.LASF26:
 1975 0053 6D6F746F 		.ascii	"motorProcStack\000"
 1975      7250726F 
 1975      63537461 
 1975      636B00
 1976              	.LASF30:
 1977 0062 70696431 		.ascii	"pid1\000"
 1977      00
 1978              	.LASF24:
 1979 0067 6D617472 		.ascii	"matrixProc\000"
 1979      69785072 
 1979      6F6300
 1980              	.LASF0:
 1981 0072 756E7369 		.ascii	"unsigned char\000"
 1981      676E6564 
 1981      20636861 
 1981      7200
 1982              	.LASF32:
 1983 0080 70696433 		.ascii	"pid3\000"
 1983      00
 1984              	.LASF33:
 1985 0085 70696434 		.ascii	"pid4\000"
 1985      00
 1986              	.LASF6:
 1987 008a 6C6F6E67 		.ascii	"long unsigned int\000"
 1987      20756E73 
 1987      69676E65 
 1987      6420696E 
 1987      7400
 1988              	.LASF16:
 1989 009c 73756D54 		.ascii	"sumTime\000"
 1989      696D6500 
 1990              	.LASF1:
 1991 00a4 73686F72 		.ascii	"short unsigned int\000"
 1991      7420756E 
 1991      7369676E 
 1991      65642069 
 1991      6E7400
ARM GAS  /cygdrive/c/Users/embedded/AppData/Local/Temp/ccHdAOHQ.s 			page 44


 1992              	.LASF23:
 1993 00b7 6D6F746F 		.ascii	"motorProc\000"
 1993      7250726F 
 1993      6300
 1994              	.LASF12:
 1995 00c1 736F756E 		.ascii	"soundProc\000"
 1995      6450726F 
 1995      6300
 1996              	.LASF8:
 1997 00cb 6D61696E 		.ascii	"main\000"
 1997      00
 1998              	.LASF17:
 1999 00d0 73656564 		.ascii	"seed\000"
 1999      00
 2000              	.LASF3:
 2001 00d5 756E7369 		.ascii	"unsigned int\000"
 2001      676E6564 
 2001      20696E74 
 2001      00
 2002              	.LASF10:
 2003 00e2 656C6170 		.ascii	"elapsedTime\000"
 2003      73656454 
 2003      696D6500 
 2004              	.LASF40:
 2005 00ee 2F637967 		.ascii	"/cygdrive/c/Users/embedded/Desktop/finalo_lpc2148_v"
 2005      64726976 
 2005      652F632F 
 2005      55736572 
 2005      732F656D 
 2006 0121 332F7265 		.ascii	"3/reflexgame\000"
 2006      666C6578 
 2006      67616D65 
 2006      00
 2007              	.LASF20:
 2008 012e 6C696E65 		.ascii	"line\000"
 2008      00
 2009              	.LASF11:
 2010 0133 696E6974 		.ascii	"initProc\000"
 2010      50726F63 
 2010      00
 2011              	.LASF38:
 2012 013c 474E5520 		.ascii	"GNU C 4.1.1\000"
 2012      4320342E 
 2012      312E3100 
 2013              	.LASF2:
 2014 0148 74553332 		.ascii	"tU32\000"
 2014      00
 2015              	.LASF22:
 2016 014d 63686172 		.ascii	"char\000"
 2016      00
 2017              	.LASF15:
 2018 0152 61766754 		.ascii	"avgTime\000"
 2018      696D6500 
 2019              	.LASF7:
 2020 015a 61707054 		.ascii	"appTick\000"
 2020      69636B00 
 2021              	.LASF31:
ARM GAS  /cygdrive/c/Users/embedded/AppData/Local/Temp/ccHdAOHQ.s 			page 45


 2022 0162 70696432 		.ascii	"pid2\000"
 2022      00
 2023              	.LASF5:
 2024 0167 73686F72 		.ascii	"short int\000"
 2024      7420696E 
 2024      7400
 2025              	.LASF9:
 2026 0171 6572726F 		.ascii	"error\000"
 2026      7200
 2027              	.LASF34:
 2028 0177 736F756E 		.ascii	"soundNumber\000"
 2028      644E756D 
 2028      62657200 
 2029              	.LASF35:
 2030 0183 6C656450 		.ascii	"ledPattern\000"
 2030      61747465 
 2030      726E00
 2031              	.LASF27:
 2032 018e 6D617472 		.ascii	"matrixProcStack\000"
 2032      69785072 
 2032      6F635374 
 2032      61636B00 
 2033              	.LASF4:
 2034 019e 7369676E 		.ascii	"signed char\000"
 2034      65642063 
 2034      68617200 
 2035              	.LASF37:
 2036 01aa 6D6F746F 		.ascii	"motorplay\000"
 2036      72706C61 
 2036      7900
 2037              	.LASF39:
 2038 01b4 6D61696E 		.ascii	"main.c\000"
 2038      2E6300
 2039              	.LASF19:
 2040 01bb 73636F72 		.ascii	"scorecounter\000"
 2040      65636F75 
 2040      6E746572 
 2040      00
 2041              		.ident	"GCC: (GNU) 4.1.1"
ARM GAS  /cygdrive/c/Users/embedded/AppData/Local/Temp/ccHdAOHQ.s 			page 46


DEFINED SYMBOLS
                            *ABS*:00000000 main.c
/cygdrive/c/Users/embedded/AppData/Local/Temp/ccHdAOHQ.s:1      .text:00000000 $t
/cygdrive/c/Users/embedded/AppData/Local/Temp/ccHdAOHQ.s:16     .text:00000000 appTick
/cygdrive/c/Users/embedded/AppData/Local/Temp/ccHdAOHQ.s:35     .text:0000000c $d
/cygdrive/c/Users/embedded/AppData/Local/Temp/ccHdAOHQ.s:887    .bss:00000000 msClock
/cygdrive/c/Users/embedded/AppData/Local/Temp/ccHdAOHQ.s:43     .text:00000010 main
/cygdrive/c/Users/embedded/AppData/Local/Temp/ccHdAOHQ.s:40     .text:00000010 $t
/cygdrive/c/Users/embedded/AppData/Local/Temp/ccHdAOHQ.s:96     .text:0000005c $d
/cygdrive/c/Users/embedded/AppData/Local/Temp/ccHdAOHQ.s:106    .text:0000006c initProc
/cygdrive/c/Users/embedded/AppData/Local/Temp/ccHdAOHQ.s:902    .bss:00002005 initStack
/cygdrive/c/Users/embedded/AppData/Local/Temp/ccHdAOHQ.s:103    .text:0000006c $t
/cygdrive/c/Users/embedded/AppData/Local/Temp/ccHdAOHQ.s:147    .text:000000a8 $d
/cygdrive/c/Users/embedded/AppData/Local/Temp/ccHdAOHQ.s:904    .bss:00002195 pid1
/cygdrive/c/Users/embedded/AppData/Local/Temp/ccHdAOHQ.s:292    .text:000000d0 gameProc
/cygdrive/c/Users/embedded/AppData/Local/Temp/ccHdAOHQ.s:894    .bss:00000005 gameProcStack
/cygdrive/c/Users/embedded/AppData/Local/Temp/ccHdAOHQ.s:153    .text:000000b4 $t
/cygdrive/c/Users/embedded/AppData/Local/Temp/ccHdAOHQ.s:156    .text:000000b4 soundProc
/cygdrive/c/Users/embedded/AppData/Local/Temp/ccHdAOHQ.s:179    .text:000000cc $d
/cygdrive/c/Users/embedded/AppData/Local/Temp/ccHdAOHQ.s:874    .data:00000000 soundNumber
/cygdrive/c/Users/embedded/AppData/Local/Temp/ccHdAOHQ.s:289    .text:000000d0 $t
/cygdrive/c/Users/embedded/AppData/Local/Temp/ccHdAOHQ.s:733    .text:000003cc $d
/cygdrive/c/Users/embedded/AppData/Local/Temp/ccHdAOHQ.s:906    .bss:00002196 pid2
/cygdrive/c/Users/embedded/AppData/Local/Temp/ccHdAOHQ.s:898    .bss:00001005 matrixProcStack
/cygdrive/c/Users/embedded/AppData/Local/Temp/ccHdAOHQ.s:821    .text:000004b4 matrixProc
/cygdrive/c/Users/embedded/AppData/Local/Temp/ccHdAOHQ.s:908    .bss:00002197 pid3
/cygdrive/c/Users/embedded/AppData/Local/Temp/ccHdAOHQ.s:896    .bss:00000805 motorProcStack
/cygdrive/c/Users/embedded/AppData/Local/Temp/ccHdAOHQ.s:790    .text:00000498 motorProc
/cygdrive/c/Users/embedded/AppData/Local/Temp/ccHdAOHQ.s:910    .bss:00002198 pid4
/cygdrive/c/Users/embedded/AppData/Local/Temp/ccHdAOHQ.s:900    .bss:00001805 soundProcStack
/cygdrive/c/Users/embedded/AppData/Local/Temp/ccHdAOHQ.s:880    .data:00000004 ledPattern
/cygdrive/c/Users/embedded/AppData/Local/Temp/ccHdAOHQ.s:892    .bss:00000004 motorplay
/cygdrive/c/Users/embedded/AppData/Local/Temp/ccHdAOHQ.s:787    .text:00000498 $t
/cygdrive/c/Users/embedded/AppData/Local/Temp/ccHdAOHQ.s:814    .text:000004b0 $d
/cygdrive/c/Users/embedded/AppData/Local/Temp/ccHdAOHQ.s:818    .text:000004b4 $t
/cygdrive/c/Users/embedded/AppData/Local/Temp/ccHdAOHQ.s:863    .text:000004e8 $d
/cygdrive/c/Users/embedded/AppData/Local/Temp/ccHdAOHQ.s:875    .data:00000000 $d

UNDEFINED SYMBOLS
osInit
osCreateProcess
osStartProcess
osStart
eaInit
osDeleteProcess
soundManager
__divsi3
__modsi3
testRGB
printIntro
simplePrintf
messageOnLCD
printPatternInfo
printInfo
osSleep
getSomeTime
srand
ARM GAS  /cygdrive/c/Users/embedded/AppData/Local/Temp/ccHdAOHQ.s 			page 47


rand
getButton
snprintf
printScoreboard
getAnyButton
testMotor
startTimer1
printMatrix
